ccopy_reg
_reconstructor
p0
(csklearn.feature_extraction.dict_vectorizer
DictVectorizer
p1
c__builtin__
object
p2
Ntp3
Rp4
(dp5
S'sort'
p6
I01
sS'feature_names_'
p7
(lp8
S'A'
p9
aS'AA'
p10
aS'AAA'
p11
aS'AAAD'
p12
aS'ADGB'
p13
aS'ALl'
p14
aS'ANdre'
p15
aS'APG'
p16
aS'Abbasid'
p17
aS'About'
p18
aS'Abraham'
p19
aS'Academic'
p20
aS'Academie'
p21
aS'Academy'
p22
aS'According'
p23
aS'Achaemenid'
p24
aS'Achaemind'
p25
aS'Achievement'
p26
aS'Achim'
p27
aS'Act'
p28
aS'Admissions'
p29
aS'Adventures'
p30
aS'Africa'
p31
aS'African'
p32
aS'After'
p33
aS'Age'
p34
aS'Agodudas'
p35
aS'Agoudas'
p36
aS'Agua'
p37
aS'Aid'
p38
aS'Air'
p39
aS'Albums'
p40
aS'Alcock'
p41
aS'Ali'
p42
aS'All'
p43
aS'Alliance'
p44
aS'Along'
p45
aS'Although'
p46
aS'Amalgams'
p47
aS'America'
p48
aS'American'
p49
aS'Americans'
p50
aS'Amphion'
p51
aS'Amy'
p52
aS'An'
p53
aS'Analysts'
p54
aS'Anatoian'
p55
aS'Ancient'
p56
aS'Angaise'
p57
aS'Anglican'
p58
aS'Another'
p59
aS'Antwerp'
p60
aS'Apellon'
p61
aS'Apollo'
p62
aS'Apolo'
p63
aS'Approximately'
p64
aS'April'
p65
aS'Arab'
p66
aS'Arabic'
p67
aS'Arabs'
p68
aS'Archaemenid'
p69
aS'Architecture'
p70
aS'Are'
p71
aS'Area'
p72
aS'Argentina'
p73
aS'Armies'
p74
aS'Army'
p75
aS'Around'
p76
aS'Art'
p77
aS'Arthur'
p78
aS'Arts'
p79
aS'Aryan'
p80
aS'As'
p81
aS'Ash'
p82
aS'Asian'
p83
aS'Asians'
p84
aS'Aside'
p85
aS'Assembly'
p86
aS'Assistant'
p87
aS'Association'
p88
aS'At'
p89
aS'Atget'
p90
aS'Athen'
p91
aS'Athenaeus'
p92
aS'Athletic'
p93
aS'Awards'
p94
aS'Azerbaijan'
p95
aS'Azerbaijanis'
p96
aS'BC'
p97
aS'BEF'
p98
aS'Ballets'
p99
aS'Ban'
p100
aS'Bank'
p101
aS'Barrage'
p102
aS'Basij'
p103
aS'Battle'
p104
aS'Baudelaire'
p105
aS'Bauer'
p106
aS'Because'
p107
aS'Beech'
p108
aS'Before'
p109
aS'Belgrand'
p110
aS'Bella'
p111
aS'Berges'
p112
aS'Berlin'
p113
aS'Besides'
p114
aS'Bessemer'
p115
aS'Best'
p116
aS'Bethnal'
p117
aS'Between'
p118
aS'Billboard'
p119
aS'Bishop'
p120
aS'Bismarck'
p121
aS'Bismarkck'
p122
aS'Blue'
p123
aS'Board'
p124
aS'Bohr'
p125
aS'Bois'
p126
aS'Bonaparte'
p127
aS'Boombots'
p128
aS'Boulogne'
p129
aS'Boy'
p130
aS'Branly'
p131
aS'Breakfast'
p132
aS'Britain'
p133
aS'British'
p134
aS'Brocq'
p135
aS'Bronze'
p136
aS'Brown'
p137
aS'Browning'
p138
aS'Bucopho'
p139
aS'Bunkers'
p140
aS'Busch'
p141
aS'Business'
p142
aS'Buyers'
p143
aS'By'
p144
aS'CBC'
p145
aS'CE'
p146
aS'CESLA'
p147
aS'CFTK'
p148
aS'CJDC'
p149
aS'CKPG'
p150
aS'COmpetitiveness'
p151
aS'CTRC'
p152
aS'Cafe'
p153
aS'Caliente'
p154
aS'Califoria'
p155
aS'Caliphate'
p156
aS'Callaway'
p157
aS'Cambridge'
p158
aS'Campus'
p159
aS'Canada'
p160
aS'Canal'
p161
aS'Cancale'
p162
aS'Candy'
p163
aS'Cannes'
p164
aS'Capet'
p165
aS'Carlos'
p166
aS'Carrier'
p167
aS'Cassation'
p168
aS'Cathedral'
p169
aS'Catholic'
p170
aS'Caucasus'
p171
aS'Cecil'
p172
aS'Center'
p173
aS'Centre'
p174
aS'Century'
p175
aS'Chalons'
p176
aS'Chancellor'
p177
aS'Chapel'
p178
aS'Chapter'
p179
aS'Charity'
p180
aS'Charles'
p181
aS'Charlie'
p182
aS'Chassepot'
p183
aS'Chief'
p184
aS'Chinese'
p185
aS'Chopin'
p186
aS'Chorus'
p187
aS'Christianity'
p188
aS'Christians'
p189
aS'Church'
p190
aS'Cimetiere'
p191
aS'Cimmerians'
p192
aS'Citizen'
p193
aS'Civil'
p194
aS'Classical'
p195
aS'Clinton'
p196
aS'Close'
p197
aS'Club'
p198
aS'Color'
p199
aS'Commander'
p200
aS'Commercial'
p201
aS'Community'
p202
aS'Compagnies'
p203
aS'Comparing'
p204
aS'Compton'
p205
aS'Concert'
p206
aS'Confederations'
p207
aS'Conference'
p208
aS'Confessions'
p209
aS'Conseil'
p210
aS'Consensus'
p211
aS'Conservation'
p212
aS'Conservatoire'
p213
aS'Consortium'
p214
aS'Constant'
p215
aS'Constitution'
p216
aS'Constitutional'
p217
aS'Contemporary'
p218
aS'Cooler'
p219
aS'Copper'
p220
aS'Coronis'
p221
aS'Corps'
p222
aS'Costs'
p223
aS'Coucil'
p224
aS'Council'
p225
aS'Country'
p226
aS'Court'
p227
aS'Coutt'
p228
aS'Crawford'
p229
aS'Crazy'
p230
aS'Creative'
p231
aS'Cretan'
p232
aS'Cronquist'
p233
aS'Cruise'
p234
aS'Cuban'
p235
aS'Cup'
p236
aS'Cups'
p237
aS'Cycadeae'
p238
aS'Cygnes'
p239
aS'Cyrus'
p240
aS'DVD'
p241
aS'Damaged'
p242
aS'Dambusters'
p243
aS'Dame'
p244
aS'Dan'
p245
aS'Dance'
p246
aS'Dark'
p247
aS'Dart'
p248
aS'Darwin'
p249
aS'Daviau'
p250
aS'David'
p251
aS'DeMille'
p252
aS'Dead'
p253
aS'Dean'
p254
aS'Dec'
p255
aS'Decay'
p256
aS'December'
p257
aS'Defence'
p258
aS'Defense'
p259
aS'Deflection'
p260
aS'Delos'
p261
aS'Delouvrier'
p262
aS'Delphi'
p263
aS'Delphic'
p264
aS'Delphinius'
p265
aS'Delta'
p266
aS'Demoiselles'
p267
aS'Denis'
p268
aS'Depending'
p269
aS'Design'
p270
aS'Desperately'
p271
aS'Despite'
p272
aS'Development'
p273
aS'Did'
p274
aS'Different'
p275
aS'Dior'
p276
aS'Dipylon'
p277
aS'Director'
p278
aS'Dirksen'
p279
aS'District'
p280
aS'Do'
p281
aS'Doctor'
p282
aS'Dodona'
p283
aS'Does'
p284
aS'Dollar'
p285
aS'Donovan'
p286
aS'Doric'
p287
aS'Dreyse'
p288
aS'Drowned'
p289
aS'During'
p290
aS'E'
p291
aS'EU'
p292
aS'East'
p293
aS'Eastland'
p294
aS'Economic'
p295
aS'Edgardo'
p296
aS'Effects'
p297
aS'Ehrenfest'
p298
aS'Eiffel'
p299
aS'Einstein'
p300
aS'Eisenhower'
p301
aS'Elections'
p302
aS'Electromagnetic'
p303
aS'Embassy'
p304
aS'Emmys'
p305
aS'Emperor'
p306
aS'Empire'
p307
aS'Ems'
p308
aS'Encounters'
p309
aS'Endangered'
p310
aS'Engineered'
p311
aS'England'
p312
aS'Engler'
p313
aS'English'
p314
aS'Entertainment'
p315
aS'Era'
p316
aS'Essonne'
p317
aS'Ethnic'
p318
aS'Etruscan'
p319
aS'Eudicots'
p320
aS'Eugene'
p321
aS'Europe'
p322
aS'European'
p323
aS'Eva'
p324
aS'Everett'
p325
aS'Executive'
p326
aS'Experts'
p327
aS'Express'
p328
aS'FA'
p329
aS'FIFA'
p330
aS'Facility'
p331
aS'Faculty'
p332
aS'Famille'
p333
aS'Fars'
p334
aS'February'
p335
aS'Federation'
p336
aS'Few'
p337
aS'Fiction'
p338
aS'Film'
p339
aS'First'
p340
aS'FlaK'
p341
aS'Floor'
p342
aS'Following'
p343
aS'Football'
p344
aS'For'
p345
aS'Force'
p346
aS'Forces'
p347
aS'Ford'
p348
aS'Foundation'
p349
aS'France'
p350
aS'Frances'
p351
aS'Francois'
p352
aS'Frankfurt'
p353
aS'Frederic'
p354
aS'Fredicton'
p355
aS'Fredricton'
p356
aS'French'
p357
aS'Frochot'
p358
aS'From'
p359
aS'Frossard'
p360
aS'Fumihiko'
p361
aS'GBAD'
p362
aS'GDP'
p363
aS'GI'
p364
aS'Garden'
p365
aS'Garnier'
p366
aS'General'
p367
aS'Genome'
p368
aS'George'
p369
aS'Georges'
p370
aS'German'
p371
aS'Germans'
p372
aS'Germany'
p373
aS'Gide'
p374
aS'Gilroy'
p375
aS'Girlie'
p376
aS'Giscard'
p377
aS'Given'
p378
aS'Global'
p379
aS'Gods'
p380
aS'Golden'
p381
aS'Good'
p382
aS'Government'
p383
aS'Graduate'
p384
aS'Grand'
p385
aS'Grateful'
p386
aS'Great'
p387
aS'Greatest'
p388
aS'Greek'
p389
aS'Greeks'
p390
aS'Green'
p391
aS'Ground'
p392
aS'Guard'
p393
aS'Guardian'
p394
aS'Gulf'
p395
aS'Guy'
p396
aS'Gwamile'
p397
aS'HAA'
p398
aS'HNIC'
p399
aS'HOw'
p400
aS'HRF'
p401
aS'Habitat'
p402
aS'Haiti'
p403
aS'Hakehilos'
p404
aS'Hall'
p405
aS'Halls'
p406
aS'Han'
p407
aS'Hanks'
p408
aS'Harbor'
p409
aS'Hard'
p410
aS'Harold'
p411
aS'Harvard'
p412
aS'Having'
p413
aS'He'
p414
aS'Heart'
p415
aS'Heavier'
p416
aS'Heavy'
p417
aS'Hebdo'
p418
aS'Helios'
p419
aS'Hellenestic'
p420
aS'Her'
p421
aS'Heritage'
p422
aS'Hermann'
p423
aS'High'
p424
aS'Hindu'
p425
aS'Hispanic'
p426
aS'Hockey'
p427
aS'Holly'
p428
aS'Hollywood'
p429
aS'Hope'
p430
aS'Horse'
p431
aS'Hot'
p432
aS'Hotel'
p433
aS'House'
p434
aS'How'
p435
aS'Hugh'
p436
aS'Hugo'
p437
aS'Human'
p438
aS'Humphrey'
p439
aS'Hunchback'
p440
aS'Hundred'
p441
aS'Hyacinthus'
p442
aS'Hydroelectricity'
p443
aS'Hydropower'
p444
aS'I'
p445
aS'IFAB'
p446
aS'II'
p447
aS'III'
p448
aS'INSEE'
p449
aS'IX'
p450
aS'Ickes'
p451
aS'If'
p452
aS'Igla'
p453
aS'Ilkhanate'
p454
aS'Immaculate'
p455
aS'Imperial'
p456
aS'In'
p457
aS'Incorporated'
p458
aS'Indiana'
p459
aS'Individual'
p460
aS'Indvuna'
p461
aS'Infantry'
p462
aS'Innocents'
p463
aS'Instead'
p464
aS'Institute'
p465
aS'Integrity'
p466
aS'Intelligence'
p467
aS'International'
p468
aS'Internet'
p469
aS'Into'
p470
aS'Iran'
p471
aS'Iranian'
p472
aS'Iranians'
p473
aS'Iranina'
p474
aS'Irea'
p475
aS'Irving'
p476
aS'Is'
p477
aS'Isfahan'
p478
aS'Islam'
p479
aS'Islamic'
p480
aS'Isles'
p481
aS'Ismail'
p482
aS'It'
p483
aS'Italian'
p484
aS'Italians'
p485
aS'Ivanpah'
p486
aS'JD'
p487
aS'Jacobson'
p488
aS'James'
p489
aS'January'
p490
aS'Japan'
p491
aS'Jaws'
p492
aS'Jewish'
p493
aS'Jews'
p494
aS'Joan'
p495
aS'John'
p496
aS'Jones'
p497
aS'Jules'
p498
aS'July'
p499
aS'Jurassic'
p500
aS'Justify'
p501
aS'Kabbalah'
p502
aS'Kahlo'
p503
aS'Kahn'
p504
aS'Kaminski'
p505
aS'Kane'
p506
aS'Kathleen'
p507
aS'Kemper'
p508
aS'Kennedy'
p509
aS'Kidnapping'
p510
aS'King'
p511
aS'Knight'
p512
aS'Krupp'
p513
aS'Kurdish'
p514
aS'LDS'
p515
aS'LVL'
p516
aS'La'
p517
aS'Lane'
p518
aS'Last'
p519
aS'Latino'
p520
aS'Law'
p521
aS'Laws'
p522
aS'LeBoeuf'
p523
aS'Leader'
p524
aS'League'
p525
aS'Learning'
p526
aS'Legislative'
p527
aS'Legislatures'
p528
aS'Leon'
p529
aS'Les'
p530
aS'Leto'
p531
aS'Letterman'
p532
aS'Leucothea'
p533
aS'Li'
p534
aS'Lifetime'
p535
aS'Light'
p536
aS'Like'
p537
aS'Limkoking'
p538
aS'Lincoln'
p539
aS'Lisa'
p540
aS'Live'
p541
aS'Living'
p542
aS'Lockheed'
p543
aS'London'
p544
aS'Long'
p545
aS'Louis'
p546
aS'Louvre'
p547
aS'Love'
p548
aS'Ludi'
p549
aS'Lykegenes'
p550
aS'MANPADs'
p551
aS'MBA'
p552
aS'MDNA'
p553
aS'MTV'
p554
aS'MacMahon'
p555
aS'Macedonian'
p556
aS'Madeleine'
p557
aS'Madonna'
p558
aS'Malawi'
p559
aS'Mali'
p560
aS'Management'
p561
aS'Mananga'
p562
aS'March'
p563
aS'Mario'
p564
aS'Mark'
p565
aS'Marsyas'
p566
aS'Marxists'
p567
aS'Mary'
p568
aS'Maryam'
p569
aS'Mauriac'
p570
aS'Maverick'
p571
aS'Mcleod'
p572
aS'Me'
p573
aS'Medes'
p574
aS'Median'
p575
aS'Medical'
p576
aS'Medicine'
p577
aS'Medieval'
p578
aS'Member'
p579
aS'Mercy'
p580
aS'Metropole'
p581
aS'Metropolitan'
p582
aS'Meurice'
p583
aS'Mexican'
p584
aS'Michelin'
p585
aS'Michigan'
p586
aS'Middle'
p587
aS'Mildred'
p588
aS'Millenium'
p589
aS'Millennium'
p590
aS'Ministers'
p591
aS'Minoan'
p592
aS'Minority'
p593
aS'Mirzakhani'
p594
aS'Missouri'
p595
aS'Mitterrand'
p596
aS'Modiano'
p597
aS'Mohammad'
p598
aS'Moltke'
p599
aS'Mona'
p600
aS'Monet'
p601
aS'Mongol'
p602
aS'Most'
p603
aS'Moulin'
p604
aS'Mountain'
p605
aS'Musee'
p606
aS'Museum'
p607
aS'Music'
p608
aS'Musique'
p609
aS'Muslim'
p610
aS'My'
p611
aS'NAACP'
p612
aS'NATO'
p613
aS'NBA'
p614
aS'NCAA'
p615
aS'NCP'
p616
aS'NH'
p617
aS'Nader'
p618
aS'Name'
p619
aS'Napolean'
p620
aS'Napoleon'
p621
aS'Napoleonic'
p622
aS'National'
p623
aS'Native'
p624
aS'Navy'
p625
aS'Nazarene'
p626
aS'Near'
p627
aS'Nearly'
p628
aS'Neverhood'
p629
aS'New'
p630
aS'News'
p631
aS'Nicholas'
p632
aS'Nixon'
p633
aS'Nobel'
p634
aS'North'
p635
aS'Northern'
p636
aS'Not'
p637
aS'Notre'
p638
aS'Number'
p639
aS'Observer'
p640
aS'Of'
p641
aS'Often'
p642
aS'Olin'
p643
aS'Ollier'
p644
aS'Olympian'
p645
aS'Olympic'
p646
aS'On'
p647
aS'One'
p648
aS'Ontario'
p649
aS'Opera'
p650
aS'Optile'
p651
aS'Order'
p652
aS'Orhtodox'
p653
aS'Orsay'
p654
aS'Orson'
p655
aS'Orthodox'
p656
aS'Oscar'
p657
aS'Oscars'
p658
aS'Other'
p659
aS'Ottomans'
p660
aS'Out'
p661
aS'Outside'
p662
aS'Over'
p663
aS'PV'
p664
aS'PVO'
p665
aS'Pahlavi'
p666
aS'Pajol'
p667
aS'Pakistan'
p668
aS'Palais'
p669
aS'Palm'
p670
aS'Parc'
p671
aS'Paris'
p672
aS'Parisian'
p673
aS'Parisians'
p674
aS'Park'
p675
aS'Parliament'
p676
aS'Pashtuns'
p677
aS'Passive'
p678
aS'Patrick'
p679
aS'Paul'
p680
aS'Pella'
p681
aS'Persia'
p682
aS'Persian'
p683
aS'Persians'
p684
aS'Persis'
p685
aS'Photovoltaic'
p686
aS'Physics'
p687
aS'Picasso'
p688
aS'Picea'
p689
aS'Pig'
p690
aS'Piraeus'
p691
aS'Pius'
p692
aS'Planck'
p693
aS'Planning'
p694
aS'Player'
p695
aS'Players'
p696
aS'Poland'
p697
aS'Pompidou'
p698
aS'Pont'
p699
aS'Pope'
p700
aS'Popular'
p701
aS'Posen'
p702
aS'Power'
p703
aS'Prayer'
p704
aS'Precipitation'
p705
aS'Prefect'
p706
aS'President'
p707
aS'Presidential'
p708
aS'Primate'
p709
aS'Prince'
p710
aS'Princeton'
p711
aS'Prior'
p712
aS'Private'
p713
aS'Prize'
p714
aS'Professors'
p715
aS'Progress'
p716
aS'Project'
p717
aS'Promenade'
p718
aS'Prominent'
p719
aS'Province'
p720
aS'Prussia'
p721
aS'Prussian'
p722
aS'Prussians'
p723
aS'Public'
p724
aS'Puerto'
p725
aS'Punic'
p726
aS'Pure'
p727
aS'Qajar'
p728
aS'Qajars'
p729
aS'Quadmount'
p730
aS'Queen'
p731
aS'RPG'
p732
aS'RPGs'
p733
aS'Radar'
p734
aS'Raising'
p735
aS'Ranking'
p736
aS'Rashidun'
p737
aS'Rather'
p738
aS'Ray'
p739
aS'Rayleigh'
p740
aS'Real'
p741
aS'Rebel'
p742
aS'Reconstruction'
p743
aS'Red'
p744
aS'Reed'
p745
aS'Regarding'
p746
aS'Regional'
p747
aS'Remedios'
p748
aS'Renewables'
p749
aS'Renoir'
p750
aS'Report'
p751
aS'Representations'
p752
aS'Republic'
p753
aS'Republicaines'
p754
aS'Research'
p755
aS'Revolution'
p756
aS'Reza'
p757
aS'Rials'
p758
aS'Ricans'
p759
aS'Richard'
p760
aS'Rights'
p761
aS'Robert'
p762
aS'Robey'
p763
aS'Rocher'
p764
aS'Rock'
p765
aS'Rocket'
p766
aS'Rocky'
p767
aS'Rodat'
p768
aS'Roll'
p769
aS'Roman'
p770
aS'Romans'
p771
aS'Rome'
p772
aS'Roon'
p773
aS'Rotten'
p774
aS'Rouge'
p775
aS'Rue'
p776
aS'Rules'
p777
aS'Russes'
p778
aS'Russian'
p779
aS'Russians'
p780
aS'Ryanair'
p781
aS'SAM'
p782
aS'SAMs'
p783
aS'SHORAD'
p784
aS'SNL'
p785
aS'SPAAG'
p786
aS'SPielberg'
p787
aS'Saar'
p788
aS'Safavid'
p789
aS'Safe'
p790
aS'Saint'
p791
aS'Saloon'
p792
aS'Saltimbanques'
p793
aS'Sander'
p794
aS'Sanglante'
p795
aS'Sangoma'
p796
aS'Sassanid'
p797
aS'Schindler'
p798
aS'School'
p799
aS'Science'
p800
aS'Sciences'
p801
aS'Scotland'
p802
aS'Scout'
p803
aS'Scouts'
p804
aS'Second'
p805
aS'Secretary'
p806
aS'Sections'
p807
aS'Secure'
p808
aS'Securite'
p809
aS'Seeking'
p810
aS'Seine'
p811
aS'Semaine'
p812
aS'Senate'
p813
aS'Senator'
p814
aS'September'
p815
aS'Serbian'
p816
aS'Setting'
p817
aS'Several'
p818
aS'Shah'
p819
aS'Shanghai'
p820
aS'She'
p821
aS'Sheffield'
p822
aS'Sheinberg'
p823
aS'Shelby'
p824
aS'Shiraz'
p825
aS'Short'
p826
aS'Show'
p827
aS'Sidney'
p828
aS'Siege'
p829
aS'Siene'
p830
aS'Simon'
p831
aS'Since'
p832
aS'Sites'
p833
aS'Smaller'
p834
aS'Sobhuza'
p835
aS'Social'
p836
aS'Society'
p837
aS'Solar'
p838
aS'Solvay'
p839
aS'Somalia'
p840
aS'Somalian'
p841
aS'Some'
p842
aS'Songs'
p843
aS'Songwriter'
p844
aS'Sorbonne'
p845
aS'South'
p846
aS'Southern'
p847
aS'Soviet'
p848
aS'Space'
p849
aS'Spears'
p850
aS'Species'
p851
aS'Sperry'
p852
aS'Spielberg'
p853
aS'Spielbergo'
p854
aS'Stade'
p855
aS'Staff'
p856
aS'Stainless'
p857
aS'Stand'
p858
aS'Star'
p859
aS'State'
p860
aS'States'
p861
aS'Steel'
p862
aS'Steele'
p863
aS'Steven'
p864
aS'Stinger'
p865
aS'Stooge'
p866
aS'Strany'
p867
aS'Student'
p868
aS'Studies'
p869
aS'Sugarland'
p870
aS'Sully'
p871
aS'Summer'
p872
aS'Supreme'
p873
aS'Susan'
p874
aS'Swazi'
p875
aS'Swaziland'
p876
aS'Swazis'
p877
aS'Switzerland'
p878
aS'Synagogue'
p879
aS'THe'
p880
aS'TV'
p881
aS'Target'
p882
aS'Targets'
p883
aS'Taverne'
p884
aS'Testing'
p885
aS'Texas'
p886
aS'That'
p887
aS'The'
p888
aS'These'
p889
aS'Thionville'
p890
aS'This'
p891
aS'Thousands'
p892
aS'Thring'
p893
aS'Timur'
p894
aS'Timurid'
p895
aS'Tintin'
p896
aS'Titan'
p897
aS'Title'
p898
aS'To'
p899
aS'Todd'
p900
aS'Tom'
p901
aS'Tomatoes'
p902
aS'Top'
p903
aS'Tour'
p904
aS'Tower'
p905
aS'Training'
p906
aS'Treasury'
p907
aS'Treaty'
p908
aS'Trochu'
p909
aS'Trojan'
p910
aS'True'
p911
aS'Truman'
p912
aS'Trustees'
p913
aS'Tuileries'
p914
aS'Turkic'
p915
aS'Tyson'
p916
aS'UB'
p917
aS'UEFA'
p918
aS'UK'
p919
aS'UN'
p920
aS'UNESCO'
p921
aS'US'
p922
aS'Umhlanga'
p923
aS'Under'
p924
aS'Union'
p925
aS'United'
p926
aS'Universal'
p927
aS'University'
p928
aS'Until'
p929
aS'Upright'
p930
aS'Urban'
p931
aS'Use'
p932
aS'Using'
p933
aS'V'
p934
aS'Valery'
p935
aS'Valley'
p936
aS'Variation'
p937
aS'Verne'
p938
aS'Veterans'
p939
aS'Vickers'
p940
aS'Victor'
p941
aS'Villette'
p942
aS'Vincennes'
p943
aS'Virgin'
p944
aS'Visual'
p945
aS'Vocational'
p946
aS'Vuitton'
p947
aS'WHat'
p948
aS'WHen'
p949
aS'WWI'
p950
aS'Wagner'
p951
aS'War'
p952
aS'Warren'
p953
aS'Was'
p954
aS'Washington'
p955
aS'Weeks'
p956
aS'West'
p957
aS'Western'
p958
aS'Wettstein'
p959
aS'What'
p960
aS'When'
p961
aS'Where'
p962
aS'Which'
p963
aS'While'
p964
aS'White'
p965
aS'Who'
p966
aS'Whose'
p967
aS'Why'
p968
aS'William'
p969
aS'With'
p970
aS'Wood'
p971
aS'Work'
p972
aS'World'
p973
aS'Would'
p974
aS'Wrighton'
p975
aS'X'
p976
aS'XII'
p977
aS'XIV'
p978
aS'XVI'
p979
aS'Xylophaga'
p980
aS'Years'
p981
aS'York'
p982
aS'You'
p983
aS'Yourself'
p984
aS'Zagros'
p985
aS'Zanuck'
p986
aS'Zeus'
p987
aVa
p988
aS'abandon'
p989
aS'abbreviation'
p990
aS'abdicate'
p991
aS'ability'
p992
aS'able'
p993
aS'about'
p994
aS'absence'
p995
aS'absolutely'
p996
aVabsorb
p997
aVabundance
p998
aS'abut'
p999
aS'academic'
p1000
aS'acceptance'
p1001
aS'access'
p1002
aS'acclaim'
p1003
aVaccord
p1004
aVaccordion
p1005
aVaccount
p1006
aVaccredit
p1007
aS'accurate'
p1008
aVaccuse
p1009
aS'acheived'
p1010
aS'achieve'
p1011
aS'achievment'
p1012
aVacid
p1013
aVacquire
p1014
aS'act'
p1015
aS'action'
p1016
aS'activity'
p1017
aS'actor'
p1018
aS'actress'
p1019
aS'actually'
p1020
aVadaptation
p1021
aVadd
p1022
aS'addition'
p1023
aVadditive
p1024
aS'address'
p1025
aS'adjacent'
p1026
aS'adjective'
p1027
aS'administration'
p1028
aS'administrative'
p1029
aVadmission
p1030
aVadmit
p1031
aVadopt
p1032
aS'adoption'
p1033
aVadvance
p1034
aVadvantage
p1035
aS'adversary'
p1036
aS'adversely'
p1037
aS'aerospace'
p1038
aVaffair
p1039
aVaffect
p1040
aVaffiliate
p1041
aS'affirmative'
p1042
aS'after'
p1043
aS'aftermath'
p1044
aS'again'
p1045
aS'against'
p1046
aS'age'
p1047
aS'agency'
p1048
aS'aggregate'
p1049
aS'agreement'
p1050
aS'agriculture'
p1051
aS'ahead'
p1052
aVaim
p1053
aVair
p1054
aS'aircraft'
p1055
aVairfield
p1056
aS'airplane'
p1057
aS'airport'
p1058
aValbum
p1059
aS'alcohol'
p1060
aS'algal'
p1061
aS'all'
p1062
aVallege
p1063
aS'allegedly'
p1064
aVallocate
p1065
aVallow
p1066
aS'alloy'
p1067
aVally
p1068
aS'almost'
p1069
aS'along'
p1070
aS'already'
p1071
aS'also'
p1072
aS'alter'
p1073
aS'alternative'
p1074
aS'altitude'
p1075
aS'aluminum'
p1076
aS'always'
p1077
aS'amass'
p1078
aS'ambitious'
p1079
aS'amenable'
p1080
aS'ammunition'
p1081
aS'among'
p1082
aS'amount'
p1083
aS'an'
p1084
aS'analog'
p1085
aS'analogue'
p1086
aVanalyse
p1087
aS'analysis'
p1088
aS'ancient'
p1089
aS'and'
p1090
aS'anger'
p1091
aS'angiosperm'
p1092
aS'angle'
p1093
aS'angular'
p1094
aS'animal'
p1095
aVannex
p1096
aS'annexation'
p1097
aS'announce'
p1098
aS'annual'
p1099
aS'anologue'
p1100
aS'another'
p1101
aS'answer'
p1102
aS'anthophyta'
p1103
aS'antiaircraft'
p1104
aVanticipate
p1105
aS'any'
p1106
aS'anyone'
p1107
aS'anything'
p1108
aS'apart'
p1109
aS'appear'
p1110
aS'appearance'
p1111
aVappliance
p1112
aVapplicant
p1113
aVapplication
p1114
aVapply
p1115
aVappoint
p1116
aVappreciate
p1117
aVapproach
p1118
aVapprove
p1119
aS'approximate'
p1120
aS'approximately'
p1121
aS'aquired'
p1122
aS'arbitrary'
p1123
aS'archaic'
p1124
aS'archie'
p1125
aVarea
p1126
aS'argument'
p1127
aS'arm'
p1128
aVarmy
p1129
aS'around'
p1130
aS'arrange'
p1131
aVarrangement
p1132
aVarrest
p1133
aS'arrive'
p1134
aS'arrondissement'
p1135
aVarrow
p1136
aS'art'
p1137
aS'article'
p1138
aS'artifact'
p1139
aS'artificially'
p1140
aS'artillery'
p1141
aS'artist'
p1142
aS'artiste'
p1143
aS'artistic'
p1144
aS'ascribe'
p1145
aS'aside'
p1146
aS'aspect'
p1147
aS'assembly'
p1148
aVassert
p1149
aVassign
p1150
aS'assistance'
p1151
aVassociate
p1152
aS'association'
p1153
aS'assume'
p1154
aS'assumption'
p1155
aS'at'
p1156
aS'athletic'
p1157
aS'atmosphere'
p1158
aS'atom'
p1159
aS'atomic'
p1160
aVattach
p1161
aVattack
p1162
aVattempt
p1163
aVattend
p1164
aVattest
p1165
aS'attribute'
p1166
aS'audience'
p1167
aS'audition'
p1168
aS'authority'
p1169
aS'automatic'
p1170
aS'automatically'
p1171
aS'automobile'
p1172
aS'autumn'
p1173
aS'aux'
p1174
aS'available'
p1175
aS'avant'
p1176
aS'average'
p1177
aVaward
p1178
aS'away'
p1179
aS'bachelor'
p1180
aS'back'
p1181
aS'backer'
p1182
aS'backseat'
p1183
aS'bacteria'
p1184
aS'bad'
p1185
aS'badge'
p1186
aS'balance'
p1187
aS'ball'
p1188
aS'ballistic'
p1189
aVballoon
p1190
aS'balsa'
p1191
aS'bamboo'
p1192
aS'ban'
p1193
aS'band'
p1194
aVbank
p1195
aS'bar'
p1196
aS'barrage'
p1197
aS'barrier'
p1198
aS'base'
p1199
aS'baseball'
p1200
aS'basis'
p1201
aS'basketball'
p1202
aVbat
p1203
aS'battalion'
p1204
aVbattery
p1205
aS'battle'
p1206
aS'be'
p1207
aVbear
p1208
aS'beat'
p1209
aS'beauty'
p1210
aS'because'
p1211
aVbecome
p1212
aS'before'
p1213
aVbegin
p1214
aS'behave'
p1215
aS'behavior'
p1216
aS'behind'
p1217
aS'beieve'
p1218
aS'beilef'
p1219
aS'belief'
p1220
aVbelieve
p1221
aS'belived'
p1222
aS'belong'
p1223
aS'below'
p1224
aVbeneficiary
p1225
aS'benefit'
p1226
aS'besides'
p1227
aS'best'
p1228
aS'better'
p1229
aS'between'
p1230
aS'beyond'
p1231
aS'bid'
p1232
aS'big'
p1233
aS'bigger'
p1234
aS'biggest'
p1235
aVbind
p1236
aS'bio'
p1237
aS'biographer'
p1238
aS'biological'
p1239
aS'birth'
p1240
aS'black'
p1241
aS'bleed'
p1242
aVblockhouse
p1243
aS'blood'
p1244
aS'bloody'
p1245
aVblow
p1246
aVblue
p1247
aVboard
p1248
aS'body'
p1249
aVbomb
p1250
aS'bond'
p1251
aVbone
p1252
aS'book'
p1253
aVbookstall
p1254
aVbookstore
p1255
aS'boost'
p1256
aVborder
p1257
aS'bore'
p1258
aVbos
p1259
aS'botanical'
p1260
aS'both'
p1261
aS'bow'
p1262
aS'box'
p1263
aS'branch'
p1264
aS'brass'
p1265
aS'break'
p1266
aVbreed
p1267
aS'brick'
p1268
aS'bring'
p1269
aS'broadcast'
p1270
aS'bronze'
p1271
aS'brownish'
p1272
aS'bucopho'
p1273
aS'budget'
p1274
aVbuild
p1275
aS'builder'
p1276
aVbully
p1277
aVbundle
p1278
aS'burial'
p1279
aVburn
p1280
aVbury
p1281
aS'bus'
p1282
aS'busiest'
p1283
aS'business'
p1284
aS'businessman'
p1285
aS'but'
p1286
aS'buy'
p1287
aS'by'
p1288
aS'cabinet'
p1289
aS'cafe'
p1290
aS'caliber'
p1291
aVcall
p1292
aS'calyx'
p1293
aS'cambium'
p1294
aVcamouflage
p1295
aS'campus'
p1296
aS'can'
p1297
aS'cannon'
p1298
aS'cannot'
p1299
aS'capability'
p1300
aS'capacity'
p1301
aS'capital'
p1302
aS'cappella'
p1303
aS'captain'
p1304
aS'captive'
p1305
aVcaput
p1306
aS'car'
p1307
aS'carbon'
p1308
aS'card'
p1309
aS'care'
p1310
aS'carrier'
p1311
aS'carry'
p1312
aS'case'
p1313
aS'cast'
p1314
aVcasualty
p1315
aS'catalog'
p1316
aS'category'
p1317
aS'catholic'
p1318
aVcause
p1319
aS'caution'
p1320
aVcavity
p1321
aS'ceiling'
p1322
aS'celebrity'
p1323
aS'cell'
p1324
aS'cellulose'
p1325
aS'cellulosic'
p1326
aS'census'
p1327
aS'center'
p1328
aS'centimeter'
p1329
aS'central'
p1330
aVcentre
p1331
aS'century'
p1332
aS'certain'
p1333
aS'chair'
p1334
aS'chairman'
p1335
aVchallenge
p1336
aVchampionship
p1337
aS'chancellor'
p1338
aVchange
p1339
aS'channel'
p1340
aS'chaotic'
p1341
aS'character'
p1342
aVcharacteristic
p1343
aS'charge'
p1344
aS'charity'
p1345
aS'chart'
p1346
aS'cheaper'
p1347
aVcheck
p1348
aVchemical
p1349
aS'chemically'
p1350
aS'chestnut'
p1351
aS'chief'
p1352
aVchild
p1353
aS'childhood'
p1354
aVchip
p1355
aVchoose
p1356
aVchurch
p1357
aS'cinema'
p1358
aS'circuit'
p1359
aS'circular'
p1360
aVcitizen
p1361
aS'city'
p1362
aS'civil'
p1363
aVcivilian
p1364
aS'civilization'
p1365
aS'clade'
p1366
aS'claim'
p1367
aS'class'
p1368
aS'classical'
p1369
aVclassification
p1370
aVclassify
p1371
aS'clean'
p1372
aS'clear'
p1373
aS'clearly'
p1374
aVclient
p1375
aS'climate'
p1376
aS'clock'
p1377
aVclose
p1378
aS'closely'
p1379
aS'closest'
p1380
aVclothe
p1381
aS'club'
p1382
aVclue
p1383
aS'cm'
p1384
aS'coal'
p1385
aS'coalition'
p1386
aS'coastal'
p1387
aS'coat'
p1388
aVcod
p1389
aVcoin
p1390
aS'collaborate'
p1391
aS'college'
p1392
aS'collegiate'
p1393
aS'color'
p1394
aS'combat'
p1395
aVcombine
p1396
aS'come'
p1397
aS'comedy'
p1398
aS'comfort'
p1399
aS'command'
p1400
aS'commander'
p1401
aS'commerce'
p1402
aS'commercial'
p1403
aS'committee'
p1404
aS'common'
p1405
aS'commonly'
p1406
aVcommune
p1407
aS'community'
p1408
aS'comon'
p1409
aS'company'
p1410
aVcompare
p1411
aS'comparison'
p1412
aVcompel
p1413
aS'compete'
p1414
aS'competetive'
p1415
aS'compilation'
p1416
aS'completely'
p1417
aS'completion'
p1418
aS'complex'
p1419
aVcomplication
p1420
aS'comply'
p1421
aVcomponent
p1422
aVcompose
p1423
aS'composer'
p1424
aS'composite'
p1425
aS'composition'
p1426
aVcompound
p1427
aS'compression'
p1428
aVcomprise
p1429
aVcomputer
p1430
aS'concentric'
p1431
aS'concept'
p1432
aVconcern
p1433
aS'concert'
p1434
aS'concrete'
p1435
aS'condsidered'
p1436
aVconduct
p1437
aS'conduction'
p1438
aS'conductivity'
p1439
aVconfirm
p1440
aS'confirmation'
p1441
aS'conflict'
p1442
aVconfuse
p1443
aVconifer
p1444
aS'coniferous'
p1445
aS'coniferyl'
p1446
aS'conquer'
p1447
aS'conquest'
p1448
aS'consequence'
p1449
aS'conservation'
p1450
aVconsider
p1451
aS'considerable'
p1452
aS'consideration'
p1453
aVconsist
p1454
aS'consistent'
p1455
aS'constant'
p1456
aS'constitution'
p1457
aS'constitutional'
p1458
aVconstruct
p1459
aS'construction'
p1460
aS'consultation'
p1461
aS'consumption'
p1462
aVcontain
p1463
aS'contend'
p1464
aS'content'
p1465
aS'contest'
p1466
aS'continental'
p1467
aVcontinue
p1468
aS'contract'
p1469
aS'contrary'
p1470
aS'contrast'
p1471
aVcontribute
p1472
aS'contribution'
p1473
aS'control'
p1474
aS'controversial'
p1475
aS'controversy'
p1476
aS'convention'
p1477
aS'conversion'
p1478
aS'converstion'
p1479
aVconvert
p1480
aS'convey'
p1481
aS'convince'
p1482
aS'cooperative'
p1483
aS'copper'
p1484
aS'copy'
p1485
aS'cornerstone'
p1486
aVcorp
p1487
aVcorporation
p1488
aS'correct'
p1489
aS'correctly'
p1490
aS'correlation'
p1491
aS'corrosion'
p1492
aVcost
p1493
aS'could'
p1494
aVcouncil
p1495
aS'count'
p1496
aS'counter'
p1497
aS'counterpart'
p1498
aS'country'
p1499
aS'course'
p1500
aS'coursework'
p1501
aS'court'
p1502
aS'cover'
p1503
aS'coverage'
p1504
aS'cozy'
p1505
aVcraft
p1506
aS'crane'
p1507
aS'create'
p1508
aS'creation'
p1509
aS'cricket'
p1510
aS'critic'
p1511
aS'critical'
p1512
aS'criticism'
p1513
aVcriticize
p1514
aS'cross'
p1515
aS'crownd'
p1516
aS'crude'
p1517
aS'crystalline'
p1518
aS'crystallization'
p1519
aS'cubic'
p1520
aS'cult'
p1521
aVcurate
p1522
aVcurl
p1523
aS'currency'
p1524
aS'current'
p1525
aS'currently'
p1526
aVcurve
p1527
aVcut
p1528
aS'cutscenes'
p1529
aS'daily'
p1530
aS'damage'
p1531
aS'dance'
p1532
aS'darker'
p1533
aS'data'
p1534
aVdate
p1535
aS'daughter'
p1536
aVday
p1537
aS'de'
p1538
aS'dead'
p1539
aS'deadline'
p1540
aS'deal'
p1541
aS'dearth'
p1542
aS'death'
p1543
aS'debate'
p1544
aS'debt'
p1545
aS'debut'
p1546
aS'decade'
p1547
aVdeceive
p1548
aS'deceptively'
p1549
aS'decide'
p1550
aVdecision
p1551
aS'declaration'
p1552
aVdeclare
p1553
aS'decorative'
p1554
aVdedicate
p1555
aVdeem
p1556
aS'deep'
p1557
aS'default'
p1558
aVdefeat
p1559
aVdefect
p1560
aS'defence'
p1561
aVdefend
p1562
aS'defense'
p1563
aS'defer'
p1564
aVdefine
p1565
aS'definined'
p1566
aS'definite'
p1567
aS'definitely'
p1568
aVdegrade
p1569
aVdegree
p1570
aVdeity
p1571
aVdelay
p1572
aVdelist
p1573
aS'demand'
p1574
aS'demarcation'
p1575
aS'demo'
p1576
aS'democracy'
p1577
aVdemonstration
p1578
aS'dendrochronology'
p1579
aS'denominator'
p1580
aS'dense'
p1581
aS'denser'
p1582
aS'density'
p1583
aS'department'
p1584
aS'depend'
p1585
aVdepict
p1586
aVdepiction
p1587
aVdeploy
p1588
aS'deployment'
p1589
aS'depose'
p1590
aVdeposit
p1591
aVderive
p1592
aVdescend
p1593
aVdescribe
p1594
aS'description'
p1595
aS'desegregate'
p1596
aS'desegregation'
p1597
aVdesign
p1598
aS'designation'
p1599
aS'designer'
p1600
aS'despite'
p1601
aVdestination
p1602
aS'destroy'
p1603
aVdetach
p1604
aS'detect'
p1605
aVdetermine
p1606
aVdetractor
p1607
aS'detriment'
p1608
aVdevelop
p1609
aS'development'
p1610
aS'device'
p1611
aS'devloped'
p1612
aVdevote
p1613
aS'di'
p1614
aS'diameter'
p1615
aS'dicot'
p1616
aVdicotyledon
p1617
aVdie
p1618
aS'differ'
p1619
aS'difference'
p1620
aS'different'
p1621
aS'difficult'
p1622
aS'digital'
p1623
aS'dimension'
p1624
aS'direct'
p1625
aS'direction'
p1626
aS'directly'
p1627
aS'director'
p1628
aS'disagreement'
p1629
aVdisappear
p1630
aS'disaster'
p1631
aS'disasterous'
p1632
aVdiscern
p1633
aS'discolor'
p1634
aS'discontinue'
p1635
aS'discord'
p1636
aVdiscover
p1637
aS'discovery'
p1638
aVdiscriminate
p1639
aS'discrimination'
p1640
aS'discus'
p1641
aVdiscuss
p1642
aS'disease'
p1643
aS'dispatch'
p1644
aVdisperse
p1645
aVdispute
p1646
aS'disputre'
p1647
aS'distance'
p1648
aS'distinct'
p1649
aVdistribute
p1650
aS'district'
p1651
aVdisturb
p1652
aS'dive'
p1653
aVdiverge
p1654
aS'diverse'
p1655
aVdivide
p1656
aS'divine'
p1657
aVdivision
p1658
aS'divisison'
p1659
aVdivorce
p1660
aVdo
p1661
aVdomesticate
p1662
aVdominate
p1663
aS'domination'
p1664
aS'donation'
p1665
aS'door'
p1666
aS'down'
p1667
aS'downfall'
p1668
aVdowngrade
p1669
aS'dozen'
p1670
aS'drama'
p1671
aVdress
p1672
aVdrive
p1673
aS'driver'
p1674
aVdrop
p1675
aVdry
p1676
aS'du'
p1677
aS'due'
p1678
aS'duplication'
p1679
aS'during'
p1680
aVdynamic
p1681
aS'each'
p1682
aS'earliest'
p1683
aS'early'
p1684
aS'earlywood'
p1685
aVearn
p1686
aS'easily'
p1687
aS'east'
p1688
aS'eastern'
p1689
aS'easy'
p1690
aS'eat'
p1691
aS'eclusive'
p1692
aS'ecoles'
p1693
aS'economic'
p1694
aS'economically'
p1695
aS'economy'
p1696
aVedit
p1697
aVeducate
p1698
aS'education'
p1699
aS'effect'
p1700
aS'effective'
p1701
aS'effectiveness'
p1702
aS'efficient'
p1703
aS'effort'
p1704
aS'eighth'
p1705
aS'elastic'
p1706
aS'elasticity'
p1707
aS'elect'
p1708
aS'electrical'
p1709
aS'electricity'
p1710
aS'electromagnetic'
p1711
aVelectron
p1712
aS'electronically'
p1713
aS'electrum'
p1714
aS'element'
p1715
aS'eleventh'
p1716
aS'else'
p1717
aS'embargo'
p1718
aVemit
p1719
aS'empire'
p1720
aS'employ'
p1721
aVemployee
p1722
aS'employment'
p1723
aS'en'
p1724
aS'enable'
p1725
aVencircle
p1726
aVencourage
p1727
aS'end'
p1728
aVendanger
p1729
aVendorse
p1730
aS'endowment'
p1731
aS'enemy'
p1732
aS'energy'
p1733
aS'engage'
p1734
aVengineer
p1735
aS'enhance'
p1736
aS'enlargement'
p1737
aS'enormous'
p1738
aS'enough'
p1739
aVensue
p1740
aS'ensure'
p1741
aS'enter'
p1742
aS'entertainment'
p1743
aS'entire'
p1744
aS'entirely'
p1745
aVenvelop
p1746
aS'episode'
p1747
aS'epithet'
p1748
aS'equal'
p1749
aS'equilibrium'
p1750
aVequip
p1751
aS'equipment'
p1752
aS'era'
p1753
aS'especially'
p1754
aS'essential'
p1755
aVestablish
p1756
aVestimate
p1757
aVestimation
p1758
aS'et'
p1759
aS'ethnic'
p1760
aS'evangelical'
p1761
aS'even'
p1762
aVevent
p1763
aS'ever'
p1764
aS'every'
p1765
aS'everyone'
p1766
aS'evidence'
p1767
aS'evolution'
p1768
aS'evolve'
p1769
aS'example'
p1770
aS'exchange'
p1771
aS'exclude'
p1772
aS'exclusive'
p1773
aS'exective'
p1774
aVexecute
p1775
aS'executive'
p1776
aVexercise
p1777
aS'exhaust'
p1778
aVexile
p1779
aS'exist'
p1780
aS'existence'
p1781
aS'exotic'
p1782
aVexpand
p1783
aS'expect'
p1784
aS'expectaion'
p1785
aS'expectancy'
p1786
aS'expense'
p1787
aS'expensive'
p1788
aVexperiment
p1789
aS'explain'
p1790
aS'explanation'
p1791
aS'explode'
p1792
aVexport
p1793
aVexpress
p1794
aVextend
p1795
aS'extension'
p1796
aS'extent'
p1797
aS'external'
p1798
aS'extinct'
p1799
aVextract
p1800
aS'extractives'
p1801
aS'extravagant'
p1802
aVextremist
p1803
aS'exude'
p1804
aVeye
p1805
aVface
p1806
aS'facility'
p1807
aS'factor'
p1808
aS'faculty'
p1809
aVfail
p1810
aS'failure'
p1811
aS'fair'
p1812
aS'faithful'
p1813
aS'fall'
p1814
aS'family'
p1815
aS'famous'
p1816
aS'far'
p1817
aS'fashion'
p1818
aS'fast'
p1819
aS'fat'
p1820
aS'father'
p1821
aS'fatty'
p1822
aS'favor'
p1823
aS'favorite'
p1824
aS'favour'
p1825
aS'feasible'
p1826
aS'feasiblity'
p1827
aVfeature
p1828
aS'federal'
p1829
aS'feel'
p1830
aS'fell'
p1831
aS'felt'
p1832
aS'female'
p1833
aS'feminist'
p1834
aS'fence'
p1835
aS'fertilization'
p1836
aS'festival'
p1837
aS'few'
p1838
aVfiber
p1839
aS'field'
p1840
aS'fight'
p1841
aVfile
p1842
aVfill
p1843
aS'film'
p1844
aS'final'
p1845
aVfinalize
p1846
aS'finally'
p1847
aS'finance'
p1848
aS'financial'
p1849
aVfind
p1850
aVfinish
p1851
aS'fire'
p1852
aVfirearm
p1853
aVfirefighter
p1854
aS'fireplace'
p1855
aS'firm'
p1856
aS'first'
p1857
aVfit
p1858
aS'five'
p1859
aVfix
p1860
aS'flag'
p1861
aS'flagship'
p1862
aVflash
p1863
aVfloor
p1864
aVflower
p1865
aVflux
p1866
aS'focus'
p1867
aVfollow
p1868
aS'follower'
p1869
aVfoot
p1870
aS'football'
p1871
aVfootstep
p1872
aS'for'
p1873
aS'force'
p1874
aS'foreign'
p1875
aS'forest'
p1876
aS'form'
p1877
aS'formal'
p1878
aVformation
p1879
aS'formative'
p1880
aS'formerly'
p1881
aS'formula'
p1882
aVformulate
p1883
aS'forth'
p1884
aS'fossil'
p1885
aVfossilize
p1886
aS'foul'
p1887
aVfound
p1888
aS'foundation'
p1889
aS'four'
p1890
aS'fourth'
p1891
aS'frame'
p1892
aVfree
p1893
aS'french'
p1894
aS'frenzied'
p1895
aS'frequency'
p1896
aS'freshman'
p1897
aS'friend'
p1898
aS'from'
p1899
aS'fruit'
p1900
aS'fuel'
p1901
aS'full'
p1902
aS'fully'
p1903
aVfunction
p1904
aVfund
p1905
aS'funny'
p1906
aS'furniture'
p1907
aS'further'
p1908
aVfuse
p1909
aS'future'
p1910
aS'gain'
p1911
aS'game'
p1912
aS'garde'
p1913
aS'gas'
p1914
aS'gasoline'
p1915
aVgear
p1916
aS'gender'
p1917
aS'general'
p1918
aS'generally'
p1919
aVgenerate
p1920
aS'generation'
p1921
aS'generic'
p1922
aS'genetics'
p1923
aS'genome'
p1924
aS'genre'
p1925
aS'geographical'
p1926
aS'geometrical'
p1927
aS'geothermal'
p1928
aVget
p1929
aS'gild'
p1930
aVgive
p1931
aS'global'
p1932
aS'glow'
p1933
aVglue
p1934
aVgo
p1935
aVgoad
p1936
aS'goal'
p1937
aS'god'
p1938
aS'goddess'
p1939
aS'gold'
p1940
aS'golf'
p1941
aS'good'
p1942
aS'goverment'
p1943
aS'govern'
p1944
aS'government'
p1945
aVgraduate
p1946
aS'grain'
p1947
aS'grand'
p1948
aS'grandes'
p1949
aVgrandparent
p1950
aS'granparents'
p1951
aVgrant
p1952
aS'grave'
p1953
aS'gray'
p1954
aS'great'
p1955
aS'greater'
p1956
aS'greatest'
p1957
aS'greatly'
p1958
aS'green'
p1959
aS'grid'
p1960
aVgrind
p1961
aVgross
p1962
aVground
p1963
aS'group'
p1964
aS'grow'
p1965
aS'growth'
p1966
aVguarantee
p1967
aVguard
p1968
aS'guest'
p1969
aS'guide'
p1970
aS'guitarist'
p1971
aVgun
p1972
aS'habitat'
p1973
aS'habitually'
p1974
aS'half'
p1975
aVhall
p1976
aVhand
p1977
aS'handle'
p1978
aVhappen
p1979
aS'harbour'
p1980
aVharden
p1981
aS'harder'
p1982
aS'hardest'
p1983
aS'hardness'
p1984
aVhardwood
p1985
aVharm
p1986
aVharvest
p1987
aS'hat'
p1988
aS'havae'
p1989
aVhave
p1990
aS'he'
p1991
aVhead
p1992
aVheadquarter
p1993
aVheal
p1994
aVhear
p1995
aS'heartwood'
p1996
aS'heavier'
p1997
aS'heavily'
p1998
aS'heavy'
p1999
aS'hegenomy'
p2000
aS'height'
p2001
aVhelp
p2002
aS'hemicellulose'
p2003
aS'her'
p2004
aS'here'
p2005
aS'heritage'
p2006
aS'herself'
p2007
aS'hickory'
p2008
aS'high'
p2009
aS'higher'
p2010
aS'highest'
p2011
aS'highly'
p2012
aS'hill'
p2013
aS'him'
p2014
aVhire
p2015
aS'his'
p2016
aS'historian'
p2017
aS'historic'
p2018
aS'historical'
p2019
aS'historically'
p2020
aS'history'
p2021
aVhit
p2022
aS'hobby'
p2023
aVhold
p2024
aVhole
p2025
aS'homage'
p2026
aVhome
p2027
aS'homeless'
p2028
aS'homelessness'
p2029
aS'homomorphic'
p2030
aVhonor
p2031
aVhop
p2032
aVhospital
p2033
aS'host'
p2034
aVhostage
p2035
aS'hostile'
p2036
aVhostility
p2037
aS'hot'
p2038
aVhotel
p2039
aS'hotter'
p2040
aS'hounour'
p2041
aVhour
p2042
aVhouse
p2043
aS'household'
p2044
aVhover
p2045
aS'how'
p2046
aS'hub'
p2047
aS'human'
p2048
aS'humanistic'
p2049
aVhundred
p2050
aS'hydroelectric'
p2051
aS'hydroelectricity'
p2052
aS'hydrogen'
p2053
aS'hydropower'
p2054
aVhymn
p2055
aS'hypothetical'
p2056
aS'idea'
p2057
aS'ideal'
p2058
aVidentify
p2059
aS'if'
p2060
aS'ignore'
p2061
aS'ile'
p2062
aS'illusive'
p2063
aS'imaginative'
p2064
aS'imitation'
p2065
aS'immediate'
p2066
aVimmigrant
p2067
aS'immigrate'
p2068
aS'immortal'
p2069
aS'impact'
p2070
aS'imperfection'
p2071
aS'imperial'
p2072
aS'impervious'
p2073
aVimplement
p2074
aVimplication
p2075
aVimport
p2076
aS'importance'
p2077
aS'important'
p2078
aVimpose
p2079
aVimpregnate
p2080
aS'impressively'
p2081
aS'improve'
p2082
aS'impure'
p2083
aS'in'
p2084
aS'incarnate'
p2085
aS'incentive'
p2086
aS'inch'
p2087
aVinclude
p2088
aS'income'
p2089
aS'incoming'
p2090
aVincorporate
p2091
aVincrease
p2092
aS'increasingly'
p2093
aS'increment'
p2094
aS'independent'
p2095
aS'indepenent'
p2096
aVindicate
p2097
aS'indigenous'
p2098
aVindividual
p2099
aS'individually'
p2100
aVinduct
p2101
aVinductee
p2102
aS'industry'
p2103
aS'inefficiency'
p2104
aS'infantry'
p2105
aVinfect
p2106
aS'inflation'
p2107
aS'influence'
p2108
aS'influential'
p2109
aVinform
p2110
aS'information'
p2111
aVinhabit
p2112
aVinhabitant
p2113
aS'initially'
p2114
aS'initiation'
p2115
aS'initiative'
p2116
aS'inner'
p2117
aS'innovative'
p2118
aS'inscription'
p2119
aVinsect
p2120
aS'inside'
p2121
aS'insoluble'
p2122
aS'inspection'
p2123
aS'inspiration'
p2124
aS'inspire'
p2125
aVinstal
p2126
aVinstallation
p2127
aS'instant'
p2128
aS'instead'
p2129
aVinstitute
p2130
aS'instrument'
p2131
aVintegrate
p2132
aVintend
p2133
aS'intercept'
p2134
aVinterceptor
p2135
aS'interchangeable'
p2136
aS'interchangeably'
p2137
aVinterest
p2138
aS'intermediate'
p2139
aS'internal'
p2140
aS'international'
p2141
aS'internet'
p2142
aS'internship'
p2143
aVinterpret
p2144
aS'interstitial'
p2145
aS'interview'
p2146
aS'into'
p2147
aVintroduce
p2148
aS'introduction'
p2149
aS'invade'
p2150
aS'invasion'
p2151
aVinvent
p2152
aVinvention
p2153
aVinvest
p2154
aS'investigation'
p2155
aS'investment'
p2156
aVinvolve
p2157
aS'involvement'
p2158
aS'iron'
p2159
aVironclad
p2160
aS'island'
p2161
aS'isotopic'
p2162
aS'issue'
p2163
aVit
p2164
aS'item'
p2165
aS'itself'
p2166
aS'ivory'
p2167
aVjam
p2168
aS'jazz'
p2169
aS'jewellery'
p2170
aS'job'
p2171
aS'join'
p2172
aVjudge
p2173
aS'junior'
p2174
aVjurist
p2175
aS'just'
p2176
aS'keep'
p2177
aS'key'
p2178
aS'kick'
p2179
aVkid
p2180
aVkidnap
p2181
aVkill
p2182
aS'kilogram'
p2183
aVkilometer
p2184
aVkilometre
p2185
aS'kind'
p2186
aS'kinetic'
p2187
aVking
p2188
aS'kit'
p2189
aS'kithara'
p2190
aVknot
p2191
aVknow
p2192
aS'la'
p2193
aVlab
p2194
aS'lack'
p2195
aVlaminate
p2196
aS'land'
p2197
aVlandowner
p2198
aS'landscape'
p2199
aS'language'
p2200
aVlapse
p2201
aS'large'
p2202
aS'largely'
p2203
aS'larger'
p2204
aS'largest'
p2205
aVlaser
p2206
aS'last'
p2207
aS'late'
p2208
aS'later'
p2209
aS'latewood'
p2210
aVlaunch
p2211
aVlauncher
p2212
aVlaureate
p2213
aS'law'
p2214
aVlawsuit
p2215
aS'lawyer'
p2216
aVlay
p2217
aVlayer
p2218
aS'layout'
p2219
aVle
p2220
aVlead
p2221
aS'leader'
p2222
aS'leadership'
p2223
aS'league'
p2224
aVlearn
p2225
aS'least'
p2226
aS'leave'
p2227
aS'legislation'
p2228
aS'legislative'
p2229
aS'legislature'
p2230
aS'lend'
p2231
aS'length'
p2232
aS'letter'
p2233
aVlevel
p2234
aS'liberate'
p2235
aS'library'
p2236
aS'life'
p2237
aS'lift'
p2238
aS'light'
p2239
aS'lighter'
p2240
aS'lightweight'
p2241
aS'lignin'
p2242
aS'like'
p2243
aS'likely'
p2244
aS'lilangeni'
p2245
aS'limb'
p2246
aVlimit
p2247
aS'limitation'
p2248
aS'line'
p2249
aS'lineage'
p2250
aVlink
p2251
aS'liquid'
p2252
aS'list'
p2253
aVlisten
p2254
aS'literal'
p2255
aS'literally'
p2256
aS'literary'
p2257
aS'little'
p2258
aS'live'
p2259
aVload
p2260
aS'local'
p2261
aS'locate'
p2262
aS'location'
p2263
aS'logical'
p2264
aS'long'
p2265
aS'longer'
p2266
aS'longleaf'
p2267
aS'look'
p2268
aVlose
p2269
aS'loss'
p2270
aS'lot'
p2271
aS'love'
p2272
aS'low'
p2273
aS'lower'
p2274
aS'lowest'
p2275
aS'lute'
p2276
aS'lyre'
p2277
aS'machine'
p2278
aS'magazine'
p2279
aS'magentic'
p2280
aVmagician
p2281
aS'mahogany'
p2282
aS'main'
p2283
aS'mainly'
p2284
aS'mainstream'
p2285
aS'maintain'
p2286
aS'major'
p2287
aS'majority'
p2288
aVmake
p2289
aS'makeup'
p2290
aVmale
p2291
aS'man'
p2292
aVmanage
p2293
aS'mandate'
p2294
aS'manganese'
p2295
aS'manipulative'
p2296
aVmanufacture
p2297
aS'manufacturer'
p2298
aS'many'
p2299
aS'maple'
p2300
aS'marble'
p2301
aVmarch
p2302
aVmark
p2303
aS'market'
p2304
aS'marriage'
p2305
aS'marry'
p2306
aS'marshal'
p2307
aS'mass'
p2308
aVmassacre
p2309
aS'masse'
p2310
aVmasterpiece
p2311
aVmatch
p2312
aVmaterial
p2313
aS'mathematical'
p2314
aS'mathematics'
p2315
aS'matrix'
p2316
aVmatter
p2317
aVmaximize
p2318
aS'maximum'
p2319
aS'may'
p2320
aS'mayor'
p2321
aVmean
p2322
aS'meaningfu'
p2323
aS'measurable'
p2324
aS'measure'
p2325
aS'measurement'
p2326
aVmechanic
p2327
aS'mechanical'
p2328
aS'mechanism'
p2329
aVmediate
p2330
aS'mediator'
p2331
aS'medical'
p2332
aVmedium
p2333
aS'meet'
p2334
aS'megawatt'
p2335
aS'meisporangia'
p2336
aS'melon'
p2337
aVmelt
p2338
aVmember
p2339
aS'men'
p2340
aS'mercury'
p2341
aS'merely'
p2342
aS'meristem'
p2343
aS'merit'
p2344
aVmessage
p2345
aVmetal
p2346
aS'metaphysical'
p2347
aS'meteoric'
p2348
aVmeter
p2349
aS'method'
p2350
aS'metropolitan'
p2351
aS'microphone'
p2352
aS'middle'
p2353
aS'might'
p2354
aS'migranted'
p2355
aVmigrate
p2356
aVmile
p2357
aS'military'
p2358
aS'militia'
p2359
aVmillennium
p2360
aS'millimeter'
p2361
aVmillion
p2362
aS'minimal'
p2363
aS'minimum'
p2364
aS'minister'
p2365
aS'minority'
p2366
aS'minute'
p2367
aVmiscalculate
p2368
aVmiss
p2369
aS'missile'
p2370
aVmix
p2371
aS'mixture'
p2372
aS'mm'
p2373
aS'model'
p2374
aS'moderation'
p2375
aS'modern'
p2376
aS'module'
p2377
aS'modulus'
p2378
aS'molar'
p2379
aS'molecular'
p2380
aS'monarch'
p2381
aS'monarchy'
p2382
aS'monetary'
p2383
aS'money'
p2384
aS'monitor'
p2385
aS'monocot'
p2386
aS'monophyletic'
p2387
aS'month'
p2388
aVmonument
p2389
aS'moral'
p2390
aS'more'
p2391
aS'mortality'
p2392
aS'moss'
p2393
aS'most'
p2394
aS'mostly'
p2395
aS'mother'
p2396
aVmotif
p2397
aS'motion'
p2398
aVmotivate
p2399
aVmount
p2400
aS'mouse'
p2401
aS'move'
p2402
aS'movement'
p2403
aVmovie
p2404
aS'much'
p2405
aS'multiple'
p2406
aVmunition
p2407
aVmuseum
p2408
aS'music'
p2409
aVmusician
p2410
aS'must'
p2411
aS'mutualistic'
p2412
aS'muzzle'
p2413
aS'mythical'
p2414
aS'naive'
p2415
aS'name'
p2416
aS'nameplate'
p2417
aS'nanmetres'
p2418
aVnarrate
p2419
aS'narrator'
p2420
aS'narrow'
p2421
aS'narrower'
p2422
aVnation
p2423
aS'national'
p2424
aVnationalist
p2425
aVnationalize
p2426
aS'natural'
p2427
aS'naturallism'
p2428
aS'naturally'
p2429
aS'nature'
p2430
aS'nautical'
p2431
aS'naval'
p2432
aS'navy'
p2433
aS'near'
p2434
aS'nearest'
p2435
aS'nearly'
p2436
aS'necessary'
p2437
aS'necklace'
p2438
aVneed
p2439
aS'needle'
p2440
aS'negative'
p2441
aS'negotiate'
p2442
aVneighbor
p2443
aVneighborhood
p2444
aS'net'
p2445
aS'network'
p2446
aS'never'
p2447
aS'new'
p2448
aS'newer'
p2449
aS'news'
p2450
aS'newscast'
p2451
aS'newspaper'
p2452
aS'next'
p2453
aS'nickname'
p2454
aS'night'
p2455
aS'ninth'
p2456
aS'nm'
p2457
aS'no'
p2458
aVnominate
p2459
aVnomination
p2460
aVnominee
p2461
aS'non'
p2462
aS'noncompetitive'
p2463
aS'nonconverted'
p2464
aS'normally'
p2465
aS'north'
p2466
aS'northern'
p2467
aVnose
p2468
aS'not'
p2469
aS'notable'
p2470
aVnote
p2471
aS'nothing'
p2472
aS'notice'
p2473
aS'nouvelles'
p2474
aS'now'
p2475
aS'nuclear'
p2476
aS'number'
p2477
aS'numerator'
p2478
aS'oak'
p2479
aVobey
p2480
aS'object'
p2481
aVobserve
p2482
aVobsess
p2483
aS'obstacle'
p2484
aS'obtain'
p2485
aVoccupy
p2486
aS'occur'
p2487
aS'odds'
p2488
aS'of'
p2489
aS'off'
p2490
aVoffender
p2491
aS'offense'
p2492
aS'offer'
p2493
aS'office'
p2494
aVofficer
p2495
aS'official'
p2496
aS'officially'
p2497
aS'often'
p2498
aS'oil'
p2499
aS'okay'
p2500
aS'old'
p2501
aS'older'
p2502
aS'oldest'
p2503
aS'on'
p2504
aS'once'
p2505
aS'one'
p2506
aS'online'
p2507
aS'only'
p2508
aS'onus'
p2509
aS'open'
p2510
aVoperate
p2511
aS'operational'
p2512
aS'opinion'
p2513
aVopponent
p2514
aVopportunity
p2515
aVoppose
p2516
aS'opposite'
p2517
aS'opposition'
p2518
aVoption
p2519
aS'or'
p2520
aS'oracle'
p2521
aVorder
p2522
aS'organic'
p2523
aS'organisation'
p2524
aVorganization
p2525
aS'organizational'
p2526
aS'origin'
p2527
aS'original'
p2528
aS'originally'
p2529
aS'originate'
p2530
aS'other'
p2531
aS'otherwise'
p2532
aS'our'
p2533
aS'out'
p2534
aS'outcome'
p2535
aS'outer'
p2536
aS'outher'
p2537
aVoutlet
p2538
aS'outlying'
p2539
aS'outside'
p2540
aS'over'
p2541
aVoverthrow
p2542
aS'owas'
p2543
aS'own'
p2544
aVpaint
p2545
aS'painter'
p2546
aVpair
p2547
aS'palace'
p2548
aS'paper'
p2549
aVparent
p2550
aVparish
p2551
aS'parisienne'
p2552
aS'parity'
p2553
aVpark
p2554
aS'parliament'
p2555
aS'part'
p2556
aS'particle'
p2557
aS'particular'
p2558
aS'particularly'
p2559
aS'party'
p2560
aVpas
p2561
aVpass
p2562
aVpassenger
p2563
aS'passive'
p2564
aS'past'
p2565
aS'patent'
p2566
aS'paternal'
p2567
aVpatient
p2568
aS'pattern'
p2569
aVpay
p2570
aS'peaceful'
p2571
aVpeak
p2572
aS'peinture'
p2573
aS'penalty'
p2574
aS'peole'
p2575
aS'people'
p2576
aS'per'
p2577
aS'percent'
p2578
aS'percentage'
p2579
aS'perfect'
p2580
aS'perform'
p2581
aS'performance'
p2582
aS'perhaps'
p2583
aS'period'
p2584
aS'permanent'
p2585
aVpersecute
p2586
aS'personal'
p2587
aS'pet'
p2588
aS'petition'
p2589
aVphase
p2590
aS'phloem'
p2591
aS'photoelectric'
p2592
aVphotoelectron
p2593
aS'photovoltaic'
p2594
aS'phrase'
p2595
aS'physical'
p2596
aS'physician'
p2597
aS'piece'
p2598
aS'pig'
p2599
aS'pine'
p2600
aS'pinnacle'
p2601
aS'pitch'
p2602
aVplace
p2603
aS'placement'
p2604
aVplaintiff
p2605
aVplan
p2606
aS'plant'
p2607
aS'plateau'
p2608
aS'platform'
p2609
aVplay
p2610
aVplayer
p2611
aS'plentiful'
p2612
aS'pliable'
p2613
aVplumb
p2614
aS'plywood'
p2615
aS'point'
p2616
aVpole
p2617
aVpolicy
p2618
aS'political'
p2619
aS'pollen'
p2620
aS'pollution'
p2621
aS'polymer'
p2622
aS'polyphony'
p2623
aS'poorest'
p2624
aS'pop'
p2625
aS'poplar'
p2626
aS'popular'
p2627
aS'populars'
p2628
aVpopulate
p2629
aS'population'
p2630
aS'populous'
p2631
aVpore
p2632
aS'port'
p2633
aS'portion'
p2634
aVpose
p2635
aS'position'
p2636
aS'positive'
p2637
aS'possibility'
p2638
aS'possible'
p2639
aS'possibly'
p2640
aS'postal'
p2641
aS'poster'
p2642
aS'potential'
p2643
aS'potentially'
p2644
aS'poverty'
p2645
aS'power'
p2646
aS'powerful'
p2647
aS'practically'
p2648
aVpraise
p2649
aS'precious'
p2650
aS'precipitation'
p2651
aVpredict
p2652
aS'prediction'
p2653
aS'prefect'
p2654
aVprefer
p2655
aVpreference
p2656
aS'preferential'
p2657
aS'pregnant'
p2658
aS'prehistory'
p2659
aS'prejudice'
p2660
aVpremier
p2661
aS'preschool'
p2662
aS'present'
p2663
aS'president'
p2664
aS'presidential'
p2665
aS'prestigious'
p2666
aVpresume
p2667
aS'pretty'
p2668
aS'prevelant'
p2669
aS'prevent'
p2670
aS'previous'
p2671
aS'previously'
p2672
aVprice
p2673
aS'priest'
p2674
aS'primarily'
p2675
aS'primary'
p2676
aS'primate'
p2677
aS'prime'
p2678
aS'primer'
p2679
aVprinciple
p2680
aS'print'
p2681
aS'prior'
p2682
aVprisoner
p2683
aS'private'
p2684
aVprize
p2685
aS'probably'
p2686
aS'problem'
p2687
aS'process'
p2688
aS'produce'
p2689
aS'producer'
p2690
aS'product'
p2691
aS'production'
p2692
aS'professional'
p2693
aS'professor'
p2694
aS'proffer'
p2695
aS'progenitor'
p2696
aS'program'
p2697
aS'progression'
p2698
aVprohibit
p2699
aVproject
p2700
aS'projectile'
p2701
aS'projection'
p2702
aS'prominent'
p2703
aVpromise
p2704
aVpromote
p2705
aS'promotion'
p2706
aVproof
p2707
aVproperty
p2708
aS'prophecy'
p2709
aS'prophetic'
p2710
aS'proportion'
p2711
aS'proportional'
p2712
aVpropose
p2713
aS'protect'
p2714
aS'protection'
p2715
aVprotest
p2716
aVprove
p2717
aVprovide
p2718
aS'prviously'
p2719
aS'psychiatrist'
p2720
aS'public'
p2721
aS'publication'
p2722
aS'publicly'
p2723
aVpublish
p2724
aVpublisher
p2725
aS'punishable'
p2726
aS'puppet'
p2727
aVpurchase
p2728
aS'pure'
p2729
aVpurify
p2730
aS'purity'
p2731
aS'purpose'
p2732
aVpursue
p2733
aS'push'
p2734
aS'put'
p2735
aS'quai'
p2736
aS'quality'
p2737
aS'quantity'
p2738
aS'quantization'
p2739
aVquantize
p2740
aS'quantum'
p2741
aVquarter
p2742
aVquestion
p2743
aS'quickest'
p2744
aS'quickly'
p2745
aVquota
p2746
aVquote
p2747
aS'race'
p2748
aS'racial'
p2749
aS'radar'
p2750
aS'radiation'
p2751
aS'radical'
p2752
aS'radio'
p2753
aS'raid'
p2754
aS'rail'
p2755
aS'railgun'
p2756
aS'railway'
p2757
aS'rain'
p2758
aVraise
p2759
aS'range'
p2760
aS'rank'
p2761
aS'rapid'
p2762
aVrat
p2763
aS'rate'
p2764
aVratify
p2765
aS'reach'
p2766
aS'reaction'
p2767
aS'real'
p2768
aS'realied'
p2769
aS'reality'
p2770
aS'really'
p2771
aS'reason'
p2772
aS'rebellion'
p2773
aVrebuild
p2774
aVreceive
p2775
aS'recently'
p2776
aVrecognize
p2777
aVrecord
p2778
aS'rectangle'
p2779
aS'red'
p2780
aS'redefine'
p2781
aVredesign
p2782
aVrediscover
p2783
aVredo
p2784
aVreduce
p2785
aVreduction
p2786
aS'reenactment'
p2787
aVreestablish
p2788
aS'refer'
p2789
aS'referee'
p2790
aS'reference'
p2791
aVreflect
p2792
aS'reform'
p2793
aS'refuse'
p2794
aVregard
p2795
aVregime
p2796
aS'region'
p2797
aS'regional'
p2798
aS'regular'
p2799
aVregulate
p2800
aS'reign'
p2801
aVreinforce
p2802
aVrelate
p2803
aS'relation'
p2804
aS'relationship'
p2805
aS'relatioship'
p2806
aS'relative'
p2807
aS'relatively'
p2808
aVrelease
p2809
aS'relief'
p2810
aS'religion'
p2811
aS'religious'
p2812
aVreline
p2813
aS'relocate'
p2814
aVrely
p2815
aS'remarkable'
p2816
aS'remixed'
p2817
aVremodel
p2818
aVremove
p2819
aVrename
p2820
aVrender
p2821
aS'renewable'
p2822
aS'renewables'
p2823
aS'rent'
p2824
aVrepeat
p2825
aVreplace
p2826
aVreport
p2827
aVrepresent
p2828
aS'representation'
p2829
aVrepresentative
p2830
aS'republican'
p2831
aS'request'
p2832
aVrequire
p2833
aVrequirement
p2834
aS'research'
p2835
aS'reserach'
p2836
aVreserve
p2837
aS'reservoir'
p2838
aS'residence'
p2839
aVresident
p2840
aS'residential'
p2841
aS'resin'
p2842
aS'resist'
p2843
aS'resolution'
p2844
aS'resolve'
p2845
aS'resource'
p2846
aS'response'
p2847
aS'responsibility'
p2848
aS'responsible'
p2849
aVrest
p2850
aS'restaurant'
p2851
aVrestrict
p2852
aS'result'
p2853
aVretain
p2854
aS'retreat'
p2855
aS'return'
p2856
aVreveal
p2857
aVreverse
p2858
aVrevisit
p2859
aS'revive'
p2860
aVreward
p2861
aS'right'
p2862
aS'ring'
p2863
aS'risk'
p2864
aS'ritual'
p2865
aS'rivalry'
p2866
aS'river'
p2867
aS'road'
p2868
aS'rock'
p2869
aS'rocket'
p2870
aS'role'
p2871
aS'romantic'
p2872
aS'room'
p2873
aS'root'
p2874
aS'rosin'
p2875
aS'rough'
p2876
aS'roughly'
p2877
aVround
p2878
aS'route'
p2879
aS'royal'
p2880
aS'royale'
p2881
aVrub
p2882
aS'rugby'
p2883
aVrule
p2884
aS'ruler'
p2885
aVrun
p2886
aVrunway
p2887
aS'rupture'
p2888
aVsale
p2889
aS'same'
p2890
aS'sanction'
p2891
aS'sanctuary'
p2892
aS'sangoma'
p2893
aS'sanitation'
p2894
aS'sapwood'
p2895
aS'saw'
p2896
aVsay
p2897
aS'scene'
p2898
aVschedule
p2899
aVscholar
p2900
aS'school'
p2901
aS'scientific'
p2902
aS'scientist'
p2903
aVscold
p2904
aS'score'
p2905
aVscreen
p2906
aS'script'
p2907
aS'sculpture'
p2908
aS'sea'
p2909
aS'season'
p2910
aS'seasonal'
p2911
aVseat
p2912
aS'second'
p2913
aS'secondary'
p2914
aS'section'
p2915
aVsector
p2916
aS'secure'
p2917
aVsee
p2918
aVseed
p2919
aS'seek'
p2920
aVseem
p2921
aS'seemingly'
p2922
aS'seer'
p2923
aS'seeress'
p2924
aVsegment
p2925
aS'seige'
p2926
aVselect
p2927
aS'self'
p2928
aVsell
p2929
aVsemester
p2930
aVsend
p2931
aS'sensitive'
p2932
aVsepal
p2933
aS'separate'
p2934
aVsequence
p2935
aS'series'
p2936
aVservant
p2937
aVserve
p2938
aS'service'
p2939
aVserviceman
p2940
aS'set'
p2941
aVsetting
p2942
aVsettlement
p2943
aS'several'
p2944
aS'severe'
p2945
aS'severity'
p2946
aS'sex'
p2947
aS'sexual'
p2948
aS'shape'
p2949
aVshatter
p2950
aS'she'
p2951
aVshell
p2952
aS'shelter'
p2953
aS'shepherd'
p2954
aS'shift'
p2955
aVship
p2956
aVshoot
p2957
aS'short'
p2958
aS'should'
p2959
aVshout
p2960
aVshow
p2961
aS'shut'
p2962
aS'side'
p2963
aVsign
p2964
aS'signal'
p2965
aS'significant'
p2966
aS'silent'
p2967
aS'similar'
p2968
aS'simple'
p2969
aS'since'
p2970
aVsing
p2971
aVsinger
p2972
aS'single'
p2973
aVsit
p2974
aS'site'
p2975
aS'six'
p2976
aS'sixth'
p2977
aS'size'
p2978
aVskin
p2979
aS'skincare'
p2980
aS'slave'
p2981
aS'slavery'
p2982
aS'slow'
p2983
aS'slower'
p2984
aS'slowly'
p2985
aS'small'
p2986
aS'smaller'
p2987
aS'smoke'
p2988
aS'social'
p2989
aS'sodium'
p2990
aS'soft'
p2991
aVsoften
p2992
aS'softer'
p2993
aVsoftwood
p2994
aS'solar'
p2995
aVsoldier
p2996
aS'solid'
p2997
aS'solo'
p2998
aS'solution'
p2999
aS'some'
p3000
aS'someday'
p3001
aS'someone'
p3002
aS'something'
p3003
aS'sometimes'
p3004
aS'son'
p3005
aVsong
p3006
aS'songwriter'
p3007
aS'soon'
p3008
aS'sort'
p3009
aS'sound'
p3010
aS'soundtrack'
p3011
aS'source'
p3012
aS'southern'
p3013
aS'span'
p3014
aVspeak
p3015
aS'special'
p3016
aS'specialize'
p3017
aS'specialty'
p3018
aVspecie
p3019
aS'specific'
p3020
aVspecimen
p3021
aS'speech'
p3022
aS'speed'
p3023
aS'spend'
p3024
aVspike
p3025
aS'spinoff'
p3026
aVsport
p3027
aS'spread'
p3028
aS'spring'
p3029
aS'springwood'
p3030
aS'square'
p3031
aS'stage'
p3032
aS'stain'
p3033
aS'stake'
p3034
aS'stance'
p3035
aS'stand'
p3036
aS'standard'
p3037
aVstar
p3038
aVstart
p3039
aVstate
p3040
aS'statement'
p3041
aS'static'
p3042
aVstation
p3043
aS'stationary'
p3044
aVstatistic
p3045
aS'statistical'
p3046
aVstatue
p3047
aS'status'
p3048
aVstay
p3049
aS'steady'
p3050
aS'stealth'
p3051
aS'steel'
p3052
aS'steep'
p3053
aVstem
p3054
aS'stiffness'
p3055
aS'still'
p3056
aS'stnding'
p3057
aS'stock'
p3058
aS'stop'
p3059
aVstorm
p3060
aS'story'
p3061
aS'strand'
p3062
aS'strategic'
p3063
aS'strategically'
p3064
aS'stratosphere'
p3065
aVstreak
p3066
aS'strength'
p3067
aS'strict'
p3068
aVstrike
p3069
aS'strip'
p3070
aVstrive
p3071
aS'strong'
p3072
aS'stronger'
p3073
aS'strongest'
p3074
aS'structural'
p3075
aS'structure'
p3076
aS'struggle'
p3077
aVstub
p3078
aS'student'
p3079
aVstudio
p3080
aVstudy
p3081
aVstump
p3082
aVstyle
p3083
aS'stylist'
p3084
aS'subclass'
p3085
aS'subject'
p3086
aVsubmerge
p3087
aVsubmission
p3088
aS'submit'
p3089
aS'subsequent'
p3090
aS'subsidiary'
p3091
aVsubsidy
p3092
aS'subsistence'
p3093
aS'substance'
p3094
aS'substantial'
p3095
aVsubstitution
p3096
aS'subtle'
p3097
aVsuburb
p3098
aS'suburban'
p3099
aS'success'
p3100
aS'successful'
p3101
aS'such'
p3102
aS'sudden'
p3103
aS'suffer'
p3104
aS'suffix'
p3105
aS'sugar'
p3106
aS'suggest'
p3107
aS'summerwood'
p3108
aS'superior'
p3109
aVsupervise
p3110
aS'supervision'
p3111
aS'supplant'
p3112
aVsupplement
p3113
aS'supply'
p3114
aS'support'
p3115
aVsuppose
p3116
aS'supposedly'
p3117
aS'suppress'
p3118
aVsurpass
p3119
aS'surrender'
p3120
aVsurround
p3121
aVsurvive
p3122
aS'susceptible'
p3123
aVsuspect
p3124
aS'sustainably'
p3125
aS'switch'
p3126
aS'system'
p3127
aVtactic
p3128
aS'take'
p3129
aVtaker
p3130
aS'tall'
p3131
aS'tallest'
p3132
aVtarget
p3133
aVtask
p3134
aVtax
p3135
aVteam
p3136
aS'technilogical'
p3137
aVtechnology
p3138
aS'teh'
p3139
aS'telegram'
p3140
aS'television'
p3141
aVtell
p3142
aS'temperature'
p3143
aS'temple'
p3144
aS'ten'
p3145
aS'tend'
p3146
aS'tense'
p3147
aS'term'
p3148
aS'terracotta'
p3149
aVterritory
p3150
aS'terrorism'
p3151
aS'test'
p3152
aVtether
p3153
aS'texture'
p3154
aS'than'
p3155
aS'that'
p3156
aS'the'
p3157
aS'theater'
p3158
aS'theatrical'
p3159
aS'their'
p3160
aS'them'
p3161
aS'theme'
p3162
aS'themselves'
p3163
aVtheory
p3164
aS'there'
p3165
aS'thermal'
p3166
aS'these'
p3167
aS'they'
p3168
aS'thick'
p3169
aS'thicker'
p3170
aVthigh
p3171
aS'thin'
p3172
aVthing
p3173
aVthink
p3174
aS'thinner'
p3175
aS'third'
p3176
aS'this'
p3177
aS'thorough'
p3178
aS'those'
p3179
aVthousand
p3180
aVthreaten
p3181
aS'three'
p3182
aS'through'
p3183
aS'throughout'
p3184
aS'thus'
p3185
aS'timber'
p3186
aS'time'
p3187
aS'tin'
p3188
aS'tinkhundla'
p3189
aS'tiny'
p3190
aS'tip'
p3191
aVtissue
p3192
aS'title'
p3193
aS'to'
p3194
aS'today'
p3195
aS'together'
p3196
aVtool
p3197
aS'top'
p3198
aS'total'
p3199
aS'totem'
p3200
aS'touch'
p3201
aS'tour'
p3202
aS'tourist'
p3203
aS'tournament'
p3204
aS'toward'
p3205
aS'towards'
p3206
aS'tower'
p3207
aS'town'
p3208
aVtrace
p3209
aVtrack
p3210
aVtrain
p3211
aVtrait
p3212
aVtransfer
p3213
aS'transitter'
p3214
aS'translation'
p3215
aS'transmission'
p3216
aS'transmit'
p3217
aVtransmitter
p3218
aS'transport'
p3219
aVtravel
p3220
aS'treatment'
p3221
aS'treaty'
p3222
aS'tree'
p3223
aVtrend
p3224
aS'trial'
p3225
aVtribe
p3226
aVtribesman
p3227
aS'tricolpates'
p3228
aS'triple'
p3229
aVtroop
p3230
aS'trouble'
p3231
aS'truce'
p3232
aS'truck'
p3233
aS'true'
p3234
aS'trunk'
p3235
aVtry
p3236
aS'tube'
p3237
aS'tuberculosis'
p3238
aVturn
p3239
aS'turret'
p3240
aS'tutelary'
p3241
aS'twice'
p3242
aS'twin'
p3243
aS'two'
p3244
aS'type'
p3245
aS'typical'
p3246
aS'typically'
p3247
aS'umchwaso'
p3248
aS'umpire'
p3249
aS'uncertainly'
p3250
aS'under'
p3251
aVundergo
p3252
aVundergraduate
p3253
aVunderstand
p3254
aS'underwater'
p3255
aS'unification'
p3256
aS'uniformity'
p3257
aS'uniformly'
p3258
aS'unify'
p3259
aS'union'
p3260
aS'unit'
p3261
aS'universal'
p3262
aS'university'
p3263
aS'unlicensed'
p3264
aVunload
p3265
aS'unpaid'
p3266
aS'unpopular'
p3267
aS'unprecedented'
p3268
aS'until'
p3269
aS'unusually'
p3270
aS'up'
p3271
aS'update'
p3272
aS'upgrade'
p3273
aVuphold
p3274
aS'upper'
p3275
aVuprise
p3276
aS'urban'
p3277
aS'urbanism'
p3278
aVuse
p3279
aVuser
p3280
aVusher
p3281
aS'usually'
p3282
aVutensil
p3283
aVutilize
p3284
aS'value'
p3285
aVvapor
p3286
aS'variation'
p3287
aS'various'
p3288
aVvary
p3289
aS'vast'
p3290
aVvehicle
p3291
aS'version'
p3292
aS'very'
p3293
aVvessel
p3294
aS'vice'
p3295
aVvictory
p3296
aS'video'
p3297
aVview
p3298
aS'villes'
p3299
aS'violation'
p3300
aS'violator'
p3301
aS'virtually'
p3302
aS'visibe'
p3303
aS'visible'
p3304
aS'visit'
p3305
aS'visual'
p3306
aVvocal
p3307
aS'voice'
p3308
aS'volume'
p3309
aS'volunteer'
p3310
aS'von'
p3311
aS'vote'
p3312
aVvoter
p3313
aS'wall'
p3314
aVwant
p3315
aS'war'
p3316
aS'warfare'
p3317
aS'water'
p3318
aS'wave'
p3319
aS'wavelength'
p3320
aVway
p3321
aS'we'
p3322
aVweaken
p3323
aS'wealthiest'
p3324
aS'weapon'
p3325
aS'wear'
p3326
aVweek
p3327
aS'weekly'
p3328
aS'weigh'
p3329
aS'weight'
p3330
aS'weld'
p3331
aS'well'
p3332
aS'western'
p3333
aS'what'
p3334
aS'when'
p3335
aS'where'
p3336
aS'which'
p3337
aS'while'
p3338
aVwhite
p3339
aS'who'
p3340
aS'wholly'
p3341
aS'whom'
p3342
aVwhoop
p3343
aS'whose'
p3344
aS'why'
p3345
aS'wide'
p3346
aS'widely'
p3347
aS'wider'
p3348
aS'widespread'
p3349
aS'width'
p3350
aS'wildlife'
p3351
aS'will'
p3352
aS'willow'
p3353
aS'win'
p3354
aS'wind'
p3355
aVwinner
p3356
aS'with'
p3357
aVwithdraw
p3358
aS'within'
p3359
aS'without'
p3360
aS'wogabaliri'
p3361
aVwoman
p3362
aS'wood'
p3363
aS'wooden'
p3364
aS'woodwind'
p3365
aS'woody'
p3366
aS'word'
p3367
aS'work'
p3368
aVworker
p3369
aS'world'
p3370
aS'worldwide'
p3371
aS'worth'
p3372
aS'would'
p3373
aVwound
p3374
aVwrite
p3375
aVwriter
p3376
aS'xylem'
p3377
aVyard
p3378
aVyear
p3379
aS'yearly'
p3380
aS'yellow'
p3381
aS'yet'
p3382
aS'yield'
p3383
aS'you'
p3384
aS'young'
p3385
aS'younger'
p3386
aVyouth
p3387
aS'zeal'
p3388
aS'zinc'
p3389
asS'dtype'
p3390
cnumpy
float64
p3391
sS'vocabulary_'
p3392
(dp3393
g3377
I3368
sg660
I651
sg21
I12
sg1681
I1672
sg3381
I3372
sg1890
I1881
sg2716
I2707
sg284
I275
sg1475
I1466
sg1950
I1941
sg1304
I1295
sg1329
I1320
sg929
I920
sg2413
I2404
sg2509
I2500
sg1710
I1701
sg2624
I2615
sg757
I748
sg1693
I1684
sg958
I949
sg3251
I3242
sg592
I583
sg3372
I3363
sg1100
I1091
sg525
I516
sg1391
I1382
sg2864
I2855
sg472
I463
sg513
I504
sg1865
I1856
sg2798
I2789
sg1765
I1756
sg1887
I1878
sg1306
I1297
sg1944
I1935
sg1040
I1031
sg1855
I1846
sg364
I355
sg206
I197
sg440
I431
sg2901
I2892
sg2723
I2714
sg2698
I2689
sg740
I731
sg3364
I3355
sg785
I776
sg2999
I2990
sg93
I84
sg1396
I1387
sg1736
I1727
sg680
I671
sg1874
I1865
sg876
I867
sg1455
I1446
sg98
I89
sg1625
I1616
sg2913
I2904
sg427
I418
sg3366
I3357
sg3153
I3144
sg2181
I2172
sg1762
I1753
sg1721
I1712
sg2503
I2494
sg854
I845
sg987
I978
sg945
I936
sg102
I93
sg1885
I1876
sg1730
I1721
sg203
I194
sg2448
I2439
sg2445
I2436
sg2497
I2488
sg708
I699
sg3344
I3335
sg2340
I2331
sg2005
I1996
sg3313
I3304
sg3080
I3071
sg443
I434
sg1521
I1512
sg1044
I1035
sg2144
I2135
sg1676
I1667
sg2708
I2699
sg1536
I1527
sg3081
I3072
sg731
I722
sg1476
I1467
sg1996
I1987
sg2988
I2979
sg2358
I2349
sg481
I472
sg305
I296
sg1513
I1504
sg1615
I1606
sg615
I606
sg446
I437
sg1656
I1647
sg780
I771
sg738
I729
sg2904
I2895
sg224
I215
sg2826
I2817
sg835
I826
sg2390
I2381
sg1219
I1210
sg566
I557
sg2583
I2574
sg3199
I3190
sg3261
I3252
sg74
I65
sg2948
I2939
sg1344
I1335
sg859
I850
sg593
I584
sg3373
I3364
sg1129
I1120
sg2033
I2024
sg2399
I2390
sg2441
I2432
sg884
I875
sg2330
I2321
sg2409
I2400
sg1331
I1322
sg3025
I3016
sg3069
I3060
sg3122
I3113
sg3245
I3236
sg3269
I3260
sg180
I171
sg2628
I2619
sg673
I664
sg3101
I3092
sg1617
I1608
sg2415
I2406
sg1145
I1136
sg1178
I1169
sg377
I368
sg934
I925
sg2523
I2514
sg2025
I2016
sg2024
I2015
sg3212
I3203
sg2411
I2402
sg2957
I2948
sg230
I221
sg2172
I2163
sg2873
I2864
sg296
I287
sg2373
I2364
sg3368
I3359
sg1915
I1906
sg715
I706
sg3278
I3269
sg2166
I2157
sg1753
I1744
sg2327
I2318
sg2874
I2865
sg1770
I1761
sg1554
I1545
sg1564
I1555
sg191
I182
sg1931
I1922
sg60
I51
sg1141
I1132
sg1779
I1770
sg534
I525
sg2157
I2148
sg1524
I1515
sg1320
I1311
sg3315
I3306
sg376
I367
sg2177
I2168
sg442
I433
sg1967
I1958
sg1728
I1719
sg3173
I3164
sg2718
I2709
sg3011
I3002
sg3220
I3211
sg3006
I2997
sg476
I467
sg2859
I2850
sg2278
I2269
sg2046
I2037
sg2038
I2029
sg1026
I1017
sg265
I256
sg2146
I2137
sg3349
I3340
sg448
I439
sg1371
I1362
sg9
I0
sg2599
I2590
sg1595
I1586
sg1210
I1201
sg1043
I1034
sg2194
I2185
sg2361
I2352
sg696
I687
sg2217
I2208
sg2664
I2655
sg2214
I2205
sg166
I157
sg76
I67
sg149
I140
sg2728
I2719
sg43
I34
sg1163
I1154
sg1701
I1692
sg42
I33
sg194
I185
sg1952
I1943
sg1117
I1108
sg3174
I3165
sg2581
I2572
sg2286
I2277
sg1959
I1950
sg59
I50
sg1491
I1482
sg2113
I2104
sg2511
I2502
sg875
I866
sg3355
I3346
sg123
I114
sg2527
I2518
sg56
I47
sg609
I600
sg500
I491
sg1613
I1604
sg2541
I2532
sg3289
I3280
sg2085
I2076
sg498
I489
sg2924
I2915
sg774
I765
sg649
I640
sg12
I3
sg2118
I2109
sg2321
I2312
sg1213
I1204
sg931
I922
sg165
I156
sg1858
I1849
sg2587
I2578
sg1860
I1851
sg1229
I1220
sg2692
I2683
sg3290
I3281
sg857
I848
sg758
I749
sg580
I571
sg3161
I3152
sg3203
I3194
sg3007
I2998
sg2647
I2638
sg1080
I1071
sg1652
I1643
sg1851
I1842
sg788
I779
sg1266
I1257
sg1194
I1185
sg2412
I2403
sg2787
I2778
sg3168
I3159
sg707
I698
sg1195
I1186
sg2900
I2891
sg402
I393
sg1546
I1537
sg1172
I1163
sg915
I906
sg1792
I1783
sg1133
I1124
sg694
I685
sg1041
I1032
sg2052
I2043
sg1136
I1127
sg1682
I1673
sg2719
I2710
sg68
I59
sg1252
I1243
sg2322
I2313
sg1786
I1777
sg2699
I2690
sg1849
I1840
sg727
I718
sg2095
I2086
sg303
I294
sg2282
I2273
sg1444
I1435
sg358
I349
sg85
I76
sg604
I595
sg3312
I3303
sg2433
I2424
sg1800
I1791
sg2345
I2336
sg1381
I1372
sg1464
I1455
sg2446
I2437
sg1938
I1929
sg1366
I1357
sg37
I28
sg969
I960
sg1727
I1718
sg482
I473
sg221
I212
sg1735
I1726
sg1884
I1875
sg621
I612
sg1889
I1880
sg235
I226
sg1198
I1189
sg1152
I1143
sg486
I477
sg928
I919
sg972
I963
sg1893
I1884
sg3037
I3028
sg2311
I2302
sg1879
I1870
sg3077
I3068
sg1239
I1230
sg635
I626
sg1757
I1748
sg1977
I1968
sg869
I860
sg1486
I1477
sg633
I624
sg1738
I1729
sg158
I149
sg196
I187
sg1651
I1642
sg815
I806
sg623
I614
sg2865
I2856
sg304
I295
sg2516
I2507
sg438
I429
sg1662
I1653
sg3299
I3290
sg153
I144
sg3280
I3271
sg1071
I1062
sg2821
I2812
sg261
I252
sg2676
I2667
sg2761
I2752
sg231
I222
sg2852
I2843
sg1101
I1092
sg737
I728
sg3169
I3160
sg406
I397
sg902
I893
sg2341
I2332
sg1202
I1193
sg1835
I1826
sg2939
I2930
sg1161
I1152
sg22
I13
sg3198
I3189
sg2455
I2446
sg2017
I2008
sg1121
I1112
sg2612
I2603
sg1189
I1180
sg3365
I3356
sg2056
I2047
sg108
I99
sg2579
I2570
sg3030
I3021
sg2254
I2245
sg3277
I3268
sg1322
I1313
sg3248
I3239
sg1759
I1750
sg3197
I3188
sg2938
I2929
sg3333
I3324
sg439
I430
sg1648
I1639
sg3133
I3124
sg2459
I2450
sg3223
I3214
sg2244
I2235
sg2700
I2691
sg2317
I2308
sg1659
I1650
sg665
I656
sg2159
I2150
sg558
I549
sg1818
I1809
sg2923
I2914
sg2548
I2539
sg342
I333
sg2376
I2367
sg2763
I2754
sg2919
I2910
sg2280
I2271
sg1428
I1419
sg2094
I2085
sg464
I455
sg2921
I2912
sg2800
I2791
sg2920
I2911
sg2808
I2799
sg3067
I3058
sg2917
I2908
sg2395
I2386
sg1435
I1426
sg1376
I1367
sg336
I327
sg2849
I2840
sg3178
I3169
sg679
I670
sg3217
I3208
sg1702
I1693
sg101
I92
sg497
I488
sg1247
I1238
sg512
I503
sg1580
I1571
sg1616
I1607
sg1168
I1159
sg572
I563
sg2799
I2790
sg2233
I2224
sg2590
I2581
sg1390
I1381
sg1953
I1944
sg1933
I1924
sg2972
I2963
sg1747
I1738
sg2694
I2685
sg2346
I2337
sg3222
I3213
sg1568
I1559
sg2680
I2671
sg99
I90
sg1608
I1599
sg333
I324
sg2837
I2828
sg2091
I2082
sg2892
I2883
sg1250
I1241
sg2125
I2116
sg925
I916
sg488
I479
sg678
I669
sg2753
I2744
sg3097
I3088
sg1086
I1077
sg209
I200
sg1731
I1722
sg323
I314
sg1989
I1980
sg3089
I3080
sg2219
I2210
sg1549
I1540
sg1596
I1587
sg1790
I1781
sg491
I482
sg3106
I3097
sg3162
I3153
sg51
I42
sg2132
I2123
sg1098
I1089
sg2779
I2770
sg475
I466
sg1661
I1652
sg2372
I2363
sg1614
I1605
sg2037
I2028
sg1437
I1428
sg3059
I3050
sg786
I777
sg2592
I2583
sg3238
I3229
sg1601
I1592
sg2827
I2818
sg976
I967
sg1677
I1668
sg848
I839
sg1421
I1412
sg1686
I1677
sg473
I464
sg1196
I1187
sg388
I379
sg1764
I1755
sg663
I654
sg955
I946
sg2721
I2712
sg3242
I3233
sg1185
I1176
sg3230
I3221
sg2809
I2800
sg2075
I2066
sg1170
I1161
sg1165
I1156
sg1631
I1622
sg2791
I2782
sg1919
I1910
sg1714
I1705
sg111
I102
sg188
I179
sg2843
I2834
sg1902
I1893
sg2853
I2844
sg55
I46
sg1810
I1801
sg496
I487
sg559
I550
sg1228
I1219
sg3086
I3077
sg1301
I1292
sg1179
I1170
sg2567
I2558
sg485
I476
sg606
I597
sg730
I721
sg2671
I2662
sg1118
I1109
sg1638
I1629
sg1004
I995
sg2447
I2438
sg1795
I1786
sg2430
I2421
sg87
I78
sg287
I278
sg2029
I2020
sg2836
I2827
sg3326
I3317
sg1797
I1788
sg1669
I1660
sg1308
I1299
sg1545
I1536
sg425
I416
sg923
I914
sg2601
I2592
sg2714
I2705
sg2062
I2053
sg2267
I2258
sg246
I237
sg1499
I1490
sg1046
I1037
sg2715
I2706
sg1389
I1380
sg1774
I1765
sg625
I616
sg1473
I1464
sg139
I130
sg213
I204
sg171
I162
sg378
I369
sg1342
I1333
sg2001
I1992
sg2116
I2107
sg124
I115
sg3348
I3339
sg538
I529
sg3015
I3006
sg1201
I1192
sg3260
I3251
sg847
I838
sg3182
I3173
sg3190
I3181
sg2745
I2736
sg3092
I3083
sg2405
I2396
sg2138
I2129
sg2696
I2687
sg3132
I3123
sg2608
I2599
sg2237
I2228
sg207
I198
sg914
I905
sg1689
I1680
sg3118
I3109
sg697
I688
sg3369
I3360
sg302
I293
sg146
I137
sg1127
I1118
sg211
I202
sg286
I277
sg2238
I2229
sg1353
I1344
sg806
I797
sg3267
I3258
sg686
I677
sg766
I757
sg2212
I2203
sg470
I461
sg2530
I2521
sg285
I276
sg3065
I3056
sg1054
I1045
sg1053
I1044
sg2434
I2425
sg683
I674
sg3116
I3107
sg1187
I1178
sg2351
I2342
sg647
I638
sg2164
I2155
sg2611
I2602
sg3192
I3183
sg2084
I2075
sg2463
I2454
sg725
I716
sg2401
I2392
sg1630
I1621
sg2060
I2051
sg582
I573
sg2946
I2937
sg2996
I2987
sg2566
I2557
sg2896
I2887
sg2289
I2280
sg747
I738
sg3374
I3365
sg1058
I1049
sg937
I928
sg2773
I2764
sg1419
I1410
sg2644
I2635
sg1593
I1584
sg1233
I1224
sg2381
I2372
sg2944
I2935
sg301
I292
sg178
I169
sg1769
I1760
sg908
I899
sg2754
I2745
sg773
I764
sg465
I456
sg685
I676
sg2755
I2746
sg2758
I2749
sg2189
I2180
sg3098
I3089
sg1909
I1900
sg682
I673
sg2515
I2506
sg280
I271
sg2180
I2171
sg3017
I3008
sg1294
I1285
sg759
I750
sg1000
I991
sg959
I950
sg1375
I1366
sg1957
I1948
sg2396
I2387
sg3157
I3148
sg624
I615
sg2911
I2902
sg1048
I1039
sg1038
I1029
sg2176
I2167
sg1157
I1148
sg1650
I1641
sg2059
I2050
sg2329
I2320
sg2048
I2039
sg38
I29
sg408
I399
sg571
I562
sg3382
I3373
sg1713
I1704
sg2702
I2693
sg2310
I2301
sg176
I167
sg1370
I1361
sg657
I648
sg2880
I2871
sg2564
I2555
sg2960
I2951
sg3028
I3019
sg2683
I2674
sg2131
I2122
sg1690
I1681
sg631
I622
sg1688
I1679
sg1988
I1979
sg706
I697
sg3128
I3119
sg36
I27
sg489
I480
sg698
I689
sg1629
I1620
sg2639
I2630
sg2640
I2631
sg3256
I3247
sg1240
I1231
sg2582
I2573
sg2173
I2164
sg2012
I2003
sg2855
I2846
sg1109
I1100
sg415
I406
sg669
I660
sg77
I68
sg3019
I3010
sg3304
I3295
sg3388
I3379
sg2930
I2921
sg3020
I3011
sg2495
I2486
sg864
I855
sg2614
I2605
sg851
I842
sg3206
I3197
sg953
I944
sg2862
I2853
sg2501
I2492
sg1541
I1532
sg2576
I2567
sg2891
I2882
sg3204
I3195
sg692
I683
sg1539
I1530
sg2597
I2588
sg1305
I1296
sg212
I203
sg3281
I3272
sg118
I109
sg1258
I1249
sg3159
I3150
sg523
I514
sg1581
I1572
sg1873
I1864
sg3073
I3064
sg1711
I1702
sg790
I781
sg3085
I3076
sg530
I521
sg2199
I2190
sg414
I405
sg799
I790
sg2160
I2151
sg1636
I1627
sg781
I772
sg1123
I1114
sg627
I618
sg1487
I1478
sg3096
I3087
sg3130
I3121
sg306
I297
sg1281
I1272
sg340
I331
sg2248
I2239
sg1327
I1318
sg2478
I2469
sg1665
I1656
sg3121
I3112
sg710
I701
sg2279
I2270
sg1741
I1732
sg2307
I2298
sg116
I107
sg1785
I1776
sg932
I923
sg3175
I3166
sg1881
I1872
sg236
I227
sg1363
I1354
sg390
I381
sg802
I793
sg3005
I2996
sg1667
I1658
sg337
I328
sg561
I552
sg1387
I1378
sg520
I511
sg2815
I2806
sg395
I386
sg1075
I1066
sg2228
I2219
sg1120
I1111
sg1841
I1832
sg3350
I3341
sg1450
I1441
sg3321
I3312
sg1292
I1283
sg614
I605
sg705
I696
sg3316
I3307
sg2275
I2266
sg1992
I1983
sg2333
I2324
sg767
I758
sg1877
I1868
sg2493
I2484
sg490
I481
sg1994
I1985
sg1087
I1078
sg1811
I1802
sg1995
I1986
sg2995
I2986
sg106
I97
sg2162
I2153
sg3120
I3111
sg3234
I3225
sg381
I372
sg2121
I2112
sg2319
I2310
sg3142
I3133
sg2756
I2747
sg830
I821
sg386
I377
sg3270
I3261
sg1719
I1710
sg2563
I2554
sg1032
I1023
sg2040
I2031
sg269
I260
sg3255
I3246
sg2832
I2823
sg3249
I3240
sg3045
I3036
sg1767
I1758
sg944
I935
sg1780
I1771
sg2956
I2947
sg1348
I1339
sg2596
I2587
sg3084
I3075
sg243
I234
sg1639
I1630
sg2457
I2448
sg399
I390
sg2458
I2449
sg3034
I3025
sg3335
I3326
sg1018
I1009
sg2770
I2761
sg1425
I1416
sg3188
I3179
sg2942
I2933
sg2871
I2862
sg1079
I1070
sg1623
I1614
sg3152
I3143
sg1516
I1507
sg291
I282
sg789
I780
sg1871
I1862
sg3258
I3249
sg3272
I3263
sg223
I214
sg2801
I2792
sg1579
I1570
sg3386
I3377
sg1679
I1670
sg215
I206
sg2266
I2257
sg199
I190
sg181
I172
sg949
I940
sg1861
I1852
sg1530
I1521
sg596
I587
sg400
I391
sg805
I796
sg3187
I3178
sg2734
I2725
sg307
I298
sg1432
I1423
sg2816
I2807
sg824
I815
sg1532
I1523
sg1932
I1923
sg1867
I1858
sg2152
I2143
sg143
I134
sg1027
I1018
sg2357
I2348
sg985
I976
sg2979
I2970
sg1206
I1197
sg459
I450
sg1334
I1325
sg2679
I2670
sg1633
I1624
sg3117
I3108
sg1585
I1576
sg245
I236
sg1863
I1854
sg1821
I1812
sg893
I884
sg672
I663
sg1847
I1838
sg1365
I1356
sg2337
I2328
sg784
I775
sg162
I153
sg1065
I1056
sg1658
I1649
sg714
I705
sg1035
I1026
sg2426
I2417
sg30
I21
sg2922
I2913
sg1566
I1557
sg3367
I3358
sg3231
I3222
sg384
I375
sg962
I953
sg2367
I2358
sg808
I799
sg2234
I2225
sg1618
I1609
sg379
I370
sg1972
I1963
sg3144
I3135
sg2227
I2218
sg2733
I2724
sg2049
I2040
sg1272
I1263
sg3136
I3127
sg1097
I1088
sg2878
I2869
sg454
I445
sg2670
I2661
sg242
I233
sg2984
I2975
sg1207
I1198
sg3224
I3215
sg863
I854
sg2632
I2623
sg1637
I1628
sg2964
I2955
sg1493
I1484
sg422
I413
sg2568
I2559
sg1184
I1175
sg744
I735
sg2055
I2046
sg1698
I1689
sg1457
I1448
sg656
I647
sg2347
I2338
sg822
I813
sg1151
I1142
sg1825
I1816
sg2338
I2329
sg348
I339
sg1525
I1516
sg3124
I3115
sg1174
I1165
sg290
I281
sg45
I36
sg1186
I1177
sg573
I564
sg2635
I2626
sg1441
I1432
sg34
I25
sg2290
I2281
sg1894
I1885
sg1612
I1603
sg3318
I3309
sg3273
I3264
sg1200
I1191
sg503
I494
sg1025
I1016
sg1070
I1061
sg3054
I3045
sg611
I602
sg1339
I1330
sg916
I907
sg1263
I1254
sg2090
I2081
sg2130
I2121
sg2955
I2946
sg1259
I1250
sg1406
I1397
sg1262
I1253
sg796
I787
sg3282
I3273
sg2783
I2774
sg3241
I3232
sg1708
I1699
sg2119
I2110
sg2030
I2021
sg2342
I2333
sg961
I952
sg1411
I1402
sg2264
I2255
sg1245
I1236
sg579
I570
sg2126
I2117
sg2959
I2950
sg1853
I1844
sg2304
I2295
sg1024
I1015
sg1641
I1632
sg2717
I2708
sg3240
I3231
sg2637
I2628
sg517
I508
sg3305
I3296
sg845
I836
sg2259
I2250
sg3363
I3354
sg94
I85
sg2044
I2035
sg3195
I3186
sg889
I880
sg3093
I3084
sg1383
I1374
sg1722
I1713
sg3306
I3297
sg1569
I1560
sg2709
I2700
sg1704
I1695
sg700
I691
sg371
I362
sg1307
I1298
sg2529
I2520
sg1664
I1655
sg1862
I1853
sg1983
I1974
sg1297
I1288
sg1134
I1125
sg1828
I1819
sg392
I383
sg3066
I3057
sg1367
I1358
sg1668
I1659
sg2652
I2643
sg1166
I1157
sg1355
I1346
sg1511
I1502
sg2731
I2722
sg1495
I1486
sg2595
I2586
sg2492
I2483
sg2053
I2044
sg2487
I2478
sg1672
I1663
sg966
I957
sg3103
I3094
sg2600
I2591
sg3375
I3366
sg2605
I2596
sg742
I733
sg1891
I1882
sg398
I389
sg968
I959
sg1696
I1687
sg650
I641
sg910
I901
sg1600
I1591
sg2320
I2311
sg1653
I1644
sg3013
I3004
sg2689
I2680
sg1535
I1526
sg3102
I3093
sg935
I926
sg2460
I2451
sg1965
I1956
sg2292
I2283
sg2427
I2418
sg2252
I2243
sg374
I365
sg616
I607
sg2730
I2721
sg1176
I1167
sg654
I645
sg2110
I2101
sg3126
I3117
sg3233
I3224
sg1591
I1582
sg1548
I1539
sg2829
I2820
sg3232
I3223
sg479
I470
sg1773
I1764
sg3087
I3078
sg1872
I1863
sg2284
I2275
sg1531
I1522
sg1500
I1491
sg831
I822
sg3046
I3037
sg2602
I2593
sg3026
I3017
sg1751
I1742
sg965
I956
sg3056
I3047
sg2875
I2866
sg29
I20
sg1592
I1583
sg1964
I1955
sg2385
I2376
sg1005
I996
sg3353
I3344
sg1582
I1573
sg1807
I1798
sg729
I720
sg2609
I2600
sg297
I288
sg2618
I2609
sg933
I924
sg2283
I2274
sg2147
I2138
sg2589
I2580
sg2462
I2453
sg2032
I2023
sg1364
I1355
sg2950
I2941
sg2148
I2139
sg2423
I2414
sg1102
I1093
sg772
I763
sg1447
I1438
sg821
I812
sg1975
I1966
sg2469
I2460
sg865
I856
sg905
I896
sg2475
I2466
sg1642
I1633
sg2250
I2241
sg3148
I3139
sg866
I857
sg2008
I1999
sg2937
I2928
sg429
I420
sg1675
I1666
sg951
I942
sg2933
I2924
sg2869
I2860
sg1745
I1736
sg2742
I2733
sg375
I366
sg2100
I2091
sg1445
I1436
sg3031
I3022
sg607
I598
sg541
I532
sg3112
I3103
sg3379
I3370
sg1155
I1146
sg1979
I1970
sg2366
I2357
sg1059
I1050
sg853
I844
sg793
I784
sg586
I577
sg1434
I1425
sg311
I302
sg2092
I2083
sg2155
I2146
sg2142
I2133
sg1882
I1873
sg1663
I1654
sg1489
I1480
sg1350
I1341
sg3164
I3155
sg809
I800
sg761
I752
sg2362
I2353
sg1746
I1737
sg1519
I1510
sg2638
I2629
sg858
I849
sg1227
I1218
sg1309
I1300
sg1310
I1301
sg1034
I1025
sg601
I592
sg2200
I2191
sg3336
I3327
sg2079
I2070
sg2398
I2389
sg3266
I3257
sg451
I442
sg2603
I2594
sg2706
I2697
sg2474
I2465
sg1354
I1345
sg1857
I1848
sg1782
I1773
sg2806
I2797
sg41
I32
sg2506
I2497
sg1819
I1810
sg1627
I1618
sg193
I184
sg1312
I1303
sg135
I126
sg2510
I2501
sg1094
I1085
sg2978
I2969
sg632
I623
sg1362
I1353
sg2258
I2249
sg2967
I2958
sg702
I693
sg1267
I1258
sg201
I192
sg20
I11
sg1107
I1098
sg2097
I2088
sg2586
I2577
sg1477
I1468
sg726
I717
sg3339
I3330
sg142
I133
sg1892
I1883
sg1898
I1889
sg264
I255
sg1064
I1055
sg3156
I3147
sg2910
I2901
sg602
I593
sg2006
I1997
sg1139
I1130
sg1270
I1261
sg426
I417
sg1980
I1971
sg1514
I1505
sg2736
I2727
sg1485
I1476
sg3155
I3146
sg2630
I2621
sg3346
I3337
sg3141
I3132
sg548
I539
sg3176
I3167
sg2833
I2824
sg897
I888
sg918
I909
sg1910
I1901
sg1388
I1379
sg1392
I1383
sg2535
I2526
sg288
I279
sg1632
I1623
sg1090
I1081
sg862
I853
sg1326
I1317
sg227
I218
sg2661
I2652
sg721
I712
sg833
I824
sg2666
I2657
sg2897
I2888
sg2824
I2815
sg1091
I1082
sg936
I927
sg229
I220
sg1106
I1097
sg281
I272
sg1478
I1469
sg168
I159
sg695
I686
sg493
I484
sg1146
I1137
sg2471
I2462
sg1752
I1743
sg2058
I2049
sg2643
I2634
sg716
I707
sg3129
I3120
sg2507
I2498
sg1603
I1594
sg1433
I1424
sg2378
I2369
sg405
I396
sg1340
I1331
sg947
I938
sg1214
I1205
sg2406
I2397
sg619
I610
sg3209
I3200
sg2517
I2508
sg3210
I3201
sg2673
I2664
sg1742
I1733
sg999
I990
sg1197
I1188
sg2547
I2538
sg3324
I3315
sg3286
I3277
sg1754
I1745
sg1177
I1168
sg2209
I2200
sg3050
I3041
sg1673
I1664
sg2522
I2513
sg583
I574
sg2569
I2560
sg2693
I2684
sg313
I304
sg3247
I3238
sg2738
I2729
sg2961
I2952
sg1834
I1825
sg431
I422
sg2344
I2335
sg755
I746
sg2245
I2236
sg1654
I1645
sg2249
I2240
sg1836
I1827
sg1963
I1954
sg720
I711
sg2983
I2974
sg2494
I2485
sg3193
I3184
sg1438
I1429
sg2711
I2702
sg113
I104
sg3154
I3145
sg1452
I1443
sg2508
I2499
sg412
I403
sg1241
I1232
sg838
I829
sg3033
I3024
sg1646
I1637
sg1929
I1920
sg2035
I2026
sg1298
I1289
sg2169
I2160
sg154
I145
sg1299
I1290
sg2436
I2427
sg2240
I2231
sg413
I404
sg528
I519
sg2914
I2905
sg2678
I2669
sg2857
I2848
sg44
I35
sg2846
I2837
sg1076
I1067
sg1142
I1133
sg1103
I1094
sg1283
I1274
sg3383
I3374
sg2549
I2540
sg105
I96
sg3264
I3255
sg825
I816
sg1404
I1395
sg3243
I3234
sg1951
I1942
sg2912
I2903
sg2807
I2798
sg3227
I3218
sg385
I376
sg3027
I3018
sg2122
I2113
sg1431
I1422
sg2137
I2128
sg1605
I1596
sg887
I878
sg1829
I1820
sg3090
I3081
sg1567
I1558
sg515
I506
sg750
I741
sg2540
I2531
sg2184
I2175
sg1230
I1221
sg2076
I2067
sg349
I340
sg1913
I1904
sg795
I786
sg2473
I2464
sg882
I873
sg2550
I2541
sg409
I400
sg2906
I2897
sg2881
I2872
sg978
I969
sg332
I323
sg1138
I1129
sg1397
I1388
sg843
I834
sg2767
I2758
sg2127
I2118
sg782
I773
sg2299
I2290
sg2797
I2788
sg506
I497
sg1555
I1546
sg1469
I1460
sg3123
I3114
sg3202
I3193
sg2389
I2380
sg2757
I2748
sg950
I941
sg3380
I3371
sg1082
I1073
sg585
I576
sg1394
I1385
sg2584
I2575
sg1644
I1635
sg204
I195
sg2617
I2608
sg1238
I1229
sg1799
I1790
sg441
I432
sg524
I515
sg112
I103
sg86
I77
sg578
I569
sg2464
I2455
sg2774
I2765
sg2303
I2294
sg2387
I2378
sg334
I325
sg2571
I2562
sg2823
I2814
sg1626
I1617
sg1725
I1716
sg2242
I2233
sg3180
I3171
sg1928
I1919
sg2482
I2473
sg2365
I2356
sg1552
I1543
sg2883
I2874
sg3179
I3170
sg522
I513
sg1313
I1304
sg3167
I3158
sg2400
I2391
sg136
I127
sg1827
I1818
sg2973
I2964
sg200
I191
sg1314
I1305
sg735
I726
sg2839
I2830
sg2452
I2443
sg2622
I2613
sg2431
I2422
sg1401
I1392
sg2353
I2344
sg103
I94
sg3002
I2993
sg3138
I3129
sg1037
I1028
sg1621
I1612
sg2561
I2552
sg1609
I1600
sg2570
I2561
sg2890
I2881
sg460
I451
sg3022
I3013
sg270
I261
sg2796
I2787
sg502
I493
sg1778
I1769
sg2499
I2490
sg1380
I1371
sg445
I436
sg1674
I1665
sg447
I438
sg1900
I1891
sg2276
I2267
sg3047
I3038
sg687
I678
sg2822
I2813
sg1813
I1804
sg3158
I3149
sg2203
I2194
sg477
I468
sg1864
I1855
sg1458
I1449
sg483
I474
sg159
I150
sg2945
I2936
sg3360
I3351
sg2626
I2617
sg2810
I2801
sg457
I448
sg3293
I3284
sg2374
I2365
sg2861
I2852
sg1624
I1615
sg452
I443
sg926
I917
sg1039
I1030
sg2994
I2985
sg152
I143
sg2384
I2375
sg2850
I2841
sg100
I91
sg2182
I2173
sg1645
I1636
sg1147
I1138
sg3201
I3192
sg328
I319
sg128
I119
sg3023
I3014
sg3328
I3319
sg1647
I1638
sg1543
I1534
sg974
I965
sg2145
I2136
sg1114
I1105
sg577
I568
sg1056
I1047
sg629
I620
sg1880
I1871
sg1234
I1225
sg46
I37
sg2542
I2533
sg3075
I3066
sg2768
I2759
sg852
I843
sg2045
I2036
sg1130
I1121
sg600
I591
sg622
I613
sg2885
I2876
sg3021
I3012
sg129
I120
sg1635
I1626
sg1684
I1675
sg904
I895
sg2107
I2098
sg1960
I1951
sg2656
I2647
sg3370
I3361
sg2641
I2632
sg35
I26
sg1907
I1898
sg2432
I2423
sg2557
I2548
sg1011
I1002
sg2039
I2030
sg218
I209
sg984
I975
sg1226
I1217
sg544
I535
sg2468
I2459
sg1077
I1068
sg3207
I3198
sg3044
I3035
sg109
I100
sg839
I830
sg2198
I2189
sg2170
I2161
sg75
I66
sg957
I948
sg832
I823
sg565
I556
sg840
I831
sg1692
I1683
sg468
I459
sg2749
I2740
sg1657
I1648
sg568
I559
sg871
I862
sg1962
I1953
sg1923
I1914
sg1440
I1431
sg1321
I1312
sg3237
I3228
sg3214
I3205
sg91
I82
sg3308
I3299
sg1512
I1503
sg1465
I1456
sg72
I63
sg2789
I2780
sg179
I170
sg2688
I2679
sg1832
I1823
sg1148
I1139
sg2902
I2893
sg2646
I2637
sg2143
I2134
sg2977
I2968
sg2470
I2461
sg2223
I2214
sg643
I634
sg765
I756
sg2068
I2059
sg2298
I2289
sg2504
I2495
sg756
I747
sg1330
I1321
sg1575
I1566
sg2489
I2480
sg2103
I2094
sg1824
I1815
sg2963
I2954
sg1831
I1822
sg3036
I3027
sg2443
I2434
sg1015
I1006
sg1251
I1242
sg2520
I2511
sg2868
I2859
sg1007
I998
sg3226
I3217
sg2004
I1995
sg2080
I2071
sg1279
I1270
sg764
I755
sg942
I933
sg310
I301
sg2158
I2149
sg1606
I1597
sg3070
I3061
sg617
I608
sg411
I402
sg3330
I3321
sg2669
I2660
sg1126
I1117
sg3165
I3156
sg2623
I2614
sg3039
I3030
sg3051
I3042
sg2273
I2264
sg2271
I2262
sg2936
I2927
sg2889
I2880
sg262
I253
sg3068
I3059
sg892
I883
sg1739
I1730
sg461
I452
sg2795
I2786
sg1289
I1280
sg2296
I2287
sg2705
I2696
sg3357
I3348
sg417
I408
sg2015
I2006
sg2872
I2863
sg175
I166
sg1558
I1549
sg434
I425
sg2041
I2032
sg1112
I1103
sg2435
I2426
sg837
I828
sg1685
I1676
sg119
I110
sg197
I188
sg418
I409
sg597
I588
sg1533
I1524
sg1358
I1349
sg2356
I2347
sg1333
I1324
sg1254
I1245
sg1594
I1585
sg1557
I1548
sg1084
I1075
sg435
I426
sg432
I423
sg1556
I1547
sg3196
I3187
sg1842
I1833
sg939
I930
sg1844
I1835
sg1843
I1834
sg741
I732
sg1045
I1036
sg1413
I1404
sg248
I239
sg247
I238
sg1840
I1831
sg768
I759
sg2315
I2306
sg3384
I3375
sg521
I512
sg83
I74
sg514
I505
sg387
I378
sg1337
I1328
sg2934
I2925
sg2953
I2944
sg226
I217
sg2078
I2069
sg2572
I2563
sg1504
I1495
sg2710
I2701
sg2063
I2054
sg584
I575
sg3265
I3256
sg2154
I2145
sg2488
I2479
sg326
I317
sg1527
I1518
sg2183
I2174
sg1393
I1384
sg2308
I2299
sg177
I168
sg2844
I2835
sg2528
I2519
sg54
I45
sg160
I151
sg2828
I2819
sg1062
I1053
sg1522
I1513
sg1451
I1442
sg263
I254
sg2195
I2186
sg2388
I2379
sg1540
I1531
sg1483
I1474
sg1868
I1859
sg1012
I1003
sg2943
I2934
sg2812
I2803
sg137
I128
sg557
I548
sg2026
I2017
sg898
I889
sg3194
I3185
sg2697
I2688
sg2546
I2537
sg2360
I2351
sg754
I745
sg189
I180
sg3010
I3001
sg906
I897
sg3362
I3353
sg2537
I2528
sg1817
I1808
sg1820
I1811
sg2681
I2672
sg1550
I1541
sg1814
I1805
sg346
I337
sg1620
I1611
sg3062
I3053
sg2101
I2092
sg220
I211
sg612
I603
sg1323
I1314
sg885
I876
sg2253
I2244
sg2202
I2193
sg1359
I1350
sg3113
I3104
sg2986
I2977
sg753
I744
sg132
I123
sg690
I681
sg1695
I1686
sg3139
I3130
sg2444
I2435
sg3145
I3136
sg1982
I1973
sg2565
I2556
sg2764
I2755
sg2153
I2144
sg1598
I1589
sg2216
I2207
sg2562
I2553
sg1908
I1899
sg293
I284
sg2156
I2147
sg455
I446
sg1220
I1211
sg419
I410
sg1981
I1972
sg3334
I3325
sg1561
I1552
sg1377
I1368
sg844
I835
sg2302
I2293
sg2915
I2906
sg219
I210
sg3292
I3283
sg157
I148
sg2175
I2166
sg2350
I2341
sg1471
I1462
sg2403
I2394
sg2083
I2074
sg826
I817
sg1597
I1588
sg874
I865
sg182
I173
sg1416
I1407
sg1422
I1413
sg3296
I3287
sg78
I69
sg131
I122
sg3235
I3226
sg626
I617
sg3072
I3063
sg896
I887
sg1303
I1294
sg2725
I2716
sg948
I939
sg3094
I3085
sg494
I485
sg1052
I1043
sg2682
I2673
sg1083
I1074
sg3055
I3046
sg2989
I2980
sg1016
I1007
sg2421
I2412
sg495
I486
sg941
I932
sg161
I152
sg2820
I2811
sg216
I207
sg1815
I1806
sg2331
I2322
sg618
I609
sg903
I894
sg3276
I3267
sg2735
I2726
sg1869
I1860
sg901
I892
sg1756
I1747
sg2927
I2918
sg322
I313
sg1805
I1796
sg2905
I2896
sg3257
I3248
sg1649
I1640
sg353
I344
sg1602
I1593
sg3244
I3235
sg771
I762
sg2840
I2831
sg689
I680
sg779
I770
sg688
I679
sg501
I492
sg2391
I2382
sg1351
I1342
sg1069
I1060
sg1666
I1657
sg509
I500
sg1410
I1401
sg49
I40
sg2817
I2808
sg2558
I2549
sg456
I447
sg653
I644
sg3208
I3199
sg2042
I2033
sg2677
I2668
sg380
I371
sg1386
I1377
sg366
I357
sg971
I962
sg2225
I2216
sg989
I980
sg169
I160
sg2291
I2282
sg2301
I2292
sg2021
I2012
sg208
I199
sg275
I266
sg2659
I2650
sg2332
I2323
sg1726
I1717
sg1173
I1164
sg2364
I2355
sg2065
I2056
sg921
I912
sg1057
I1048
sg981
I972
sg1063
I1054
sg2285
I2276
sg2111
I2102
sg23
I14
sg676
I667
sg1502
I1493
sg1937
I1928
sg1399
I1390
sg3284
I3275
sg2277
I2268
sg351
I342
sg1479
I1470
sg2519
I2510
sg27
I18
sg2765
I2756
sg2607
I2598
sg505
I496
sg2500
I2491
sg991
I982
sg205
I196
sg2792
I2783
sg1316
I1307
sg1244
I1235
sg1809
I1800
sg2151
I2142
sg420
I411
sg2847
I2838
sg324
I315
sg988
I979
sg2794
I2785
sg2958
I2949
sg2657
I2648
sg2196
I2187
sg3111
I3102
sg1385
I1376
sg2848
I2839
sg980
I971
sg638
I629
sg912
I903
sg339
I330
sg960
I951
sg2002
I1993
sg1280
I1271
sg2751
I2742
sg3008
I2999
sg552
I543
sg2750
I2741
sg3166
I3157
sg2903
I2894
sg3183
I3174
sg347
I338
sg1781
I1772
sg2187
I2178
sg3104
I3095
sg886
I877
sg736
I727
sg3083
I3074
sg563
I554
sg267
I258
sg2990
I2981
sg733
I724
sg1958
I1949
sg1020
I1011
sg2208
I2199
sg299
I290
sg995
I986
sg2752
I2743
sg2354
I2345
sg1073
I1064
sg1068
I1059
sg1942
I1933
sg2856
I2847
sg2713
I2704
sg1033
I1024
sg316
I307
sg1427
I1418
sg1870
I1861
sg599
I590
sg1604
I1595
sg1153
I1144
sg1687
I1678
sg1599
I1590
sg2658
I2649
sg1903
I1894
sg595
I586
sg331
I322
sg1300
I1291
sg3216
I3207
sg225
I216
sg1917
I1908
sg1888
I1879
sg141
I132
sg739
I730
sg1999
I1990
sg3327
I3318
sg1986
I1977
sg1766
I1757
sg1883
I1874
sg450
I441
sg1921
I1912
sg2043
I2034
sg1733
I1724
sg2785
I2776
sg2057
I2048
sg817
I808
sg1784
I1775
sg2326
I2317
sg2741
I2732
sg1231
I1222
sg1763
I1754
sg341
I332
sg2771
I2762
sg117
I108
sg1060
I1051
sg2165
I2156
sg325
I316
sg2970
I2961
sg2724
I2715
sg2835
I2826
sg259
I250
sg2013
I2004
sg276
I267
sg751
I742
sg2163
I2154
sg2348
I2339
sg564
I555
sg1839
I1830
sg1277
I1268
sg1619
I1610
sg1182
I1173
sg2772
I2763
sg1199
I1190
sg1061
I1052
sg70
I61
sg560
I551
sg292
I283
sg1683
I1674
sg1920
I1911
sg1969
I1960
sg1628
I1619
sg2211
I2202
sg369
I360
sg155
I146
sg3108
I3099
sg3250
I3241
sg2660
I2651
sg2729
I2720
sg1660
I1651
sg1449
I1440
sg239
I230
sg3252
I3243
sg1150
I1141
sg894
I885
sg1484
I1475
sg2287
I2278
sg1946
I1937
sg794
I785
sg1830
I1821
sg2803
I2794
sg437
I428
sg436
I427
sg2477
I2468
sg2625
I2616
sg1459
I1450
sg233
I224
sg570
I561
sg2369
I2360
sg2300
I2291
sg3061
I3052
sg2281
I2272
sg2982
I2973
sg3143
I3134
sg2907
I2898
sg2149
I2140
sg394
I385
sg92
I83
sg2860
I2851
sg2226
I2217
sg2545
I2536
sg3043
I3034
sg3041
I3032
sg266
I257
sg2380
I2371
sg192
I183
sg3060
I3051
sg2805
I2796
sg1553
I1544
sg1135
I1126
sg589
I580
sg2554
I2545
sg2066
I2057
sg2324
I2315
sg2556
I2547
sg2490
I2481
sg3215
I3206
sg1221
I1212
sg403
I394
sg2188
I2179
sg2186
I2177
sg2050
I2041
sg642
I633
sg2102
I2093
sg1105
I1096
sg3307
I3298
sg1607
I1598
sg3387
I3378
sg1470
I1461
sg1154
I1145
sg2000
I1991
sg3205
I3196
sg172
I163
sg1078
I1069
sg258
I249
sg2461
I2452
sg186
I177
sg1560
I1551
sg1042
I1033
sg3095
I3086
sg877
I868
sg1183
I1174
sg667
I658
sg2929
I2920
sg2491
I2482
sg703
I694
sg198
I189
sg355
I346
sg2928
I2919
sg811
I802
sg1295
I1286
sg2633
I2624
sg66
I57
sg1072
I1063
sg2140
I2131
sg373
I364
sg1335
I1326
sg732
I723
sg2631
I2622
sg40
I31
sg970
I961
sg372
I363
sg2610
I2601
sg1291
I1282
sg2096
I2087
sg2440
I2431
sg1930
I1921
sg2747
I2738
sg567
I558
sg2766
I2757
sg2746
I2737
sg2394
I2385
sg184
I175
sg2606
I2597
sg2966
I2957
sg2472
I2463
sg888
I879
sg1110
I1101
sg2613
I2604
sg549
I540
sg1373
I1364
sg3004
I2995
sg1503
I1494
sg1144
I1135
sg1372
I1363
sg3329
I3320
sg2235
I2226
sg2916
I2907
sg1171
I1162
sg2559
I2550
sg407
I398
sg777
I768
sg591
I582
sg2804
I2795
sg368
I359
sg2081
I2072
sg3189
I3180
sg487
I478
sg416
I407
sg1850
I1841
sg2070
I2061
sg1324
I1315
sg2467
I2458
sg728
I719
sg97
I88
sg357
I348
sg2574
I2565
sg801
I792
sg2668
I2659
sg1808
I1799
sg2954
I2945
sg2016
I2007
sg2022
I2013
sg96
I87
sg2695
I2686
sg1347
I1338
sg841
I832
sg1816
I1807
sg964
I955
sg1019
I1010
sg1379
I1370
sg816
I807
sg1680
I1671
sg2014
I2005
sg1732
I1723
sg646
I637
sg2845
I2836
sg3125
I3116
sg1256
I1247
sg1248
I1239
sg2819
I2810
sg1405
I1396
sg1017
I1008
sg2867
I2858
sg1446
I1437
sg2781
I2772
sg2941
I2932
sg1137
I1128
sg345
I336
sg47
I38
sg350
I341
sg938
I929
sg2918
I2909
sg2099
I2090
sg1436
I1427
sg2909
I2900
sg478
I469
sg1378
I1369
sg1128
I1119
sg1085
I1076
sg553
I544
sg1934
I1925
sg671
I662
sg1570
I1561
sg2404
I2395
sg1346
I1337
sg1526
I1517
sg675
I666
sg3099
I3090
sg3288
I3279
sg2615
I2606
sg2686
I2677
sg1175
I1166
sg511
I502
sg2776
I2767
sg2019
I2010
sg2114
I2105
sg138
I129
sg1055
I1046
sg2762
I2753
sg2518
I2509
sg32
I23
sg1925
I1916
sg1271
I1262
sg2230
I2221
sg1261
I1252
sg2207
I2198
sg2858
I2849
sg389
I380
sg2109
I2100
sg492
I483
sg462
I453
sg2739
I2730
sg2932
I2923
sg900
I891
sg1943
I1934
sg2645
I2636
sg1119
I1110
sg527
I518
sg828
I819
sg3114
I3105
sg1205
I1196
sg314
I305
sg214
I205
sg1408
I1399
sg634
I625
sg1003
I994
sg1021
I1012
sg2971
I2962
sg3294
I3285
sg3184
I3175
sg954
I945
sg952
I943
sg1788
I1779
sg13
I4
sg1420
I1411
sg25
I16
sg2759
I2750
sg763
I754
sg684
I675
sg1508
I1499
sg1001
I992
sg2619
I2610
sg1678
I1669
sg1010
I1001
sg3342
I3333
sg2786
I2777
sg803
I794
sg2115
I2106
sg3181
I3172
sg1268
I1259
sg3150
I3141
sg3221
I3212
sg1856
I1847
sg2790
I2781
sg711
I702
sg1852
I1843
sg2106
I2097
sg272
I263
sg1914
I1905
sg1955
I1946
sg1717
I1708
sg1905
I1896
sg2375
I2366
sg3254
I3245
sg2830
I2821
sg308
I299
sg1574
I1565
sg254
I245
sg2888
I2879
sg1984
I1975
sg1761
I1752
sg1997
I1988
sg3259
I3250
sg2268
I2259
sg2997
I2988
sg3191
I3182
sg1274
I1265
sg3268
I3259
sg3338
I3329
sg2179
I2170
sg1216
I1207
sg190
I181
sg1729
I1720
sg693
I684
sg110
I101
sg1772
I1763
sg1332
I1323
sg121
I112
sg3311
I3302
sg2484
I2475
sg253
I244
sg3229
I3220
sg428
I419
sg749
I740
sg2343
I2334
sg370
I361
sg1906
I1897
sg550
I541
sg3225
I3216
sg2368
I2359
sg2818
I2809
sg354
I345
sg449
I440
sg3302
I3293
sg3347
I3338
sg1948
I1939
sg1670
I1661
sg1426
I1417
sg1442
I1433
sg2010
I2001
sg1610
I1601
sg1407
I1398
sg18
I9
sg2210
I2201
sg1822
I1813
sg1748
I1739
sg2442
I2433
sg187
I178
sg2190
I2181
sg2732
I2723
sg674
I665
sg1049
I1040
sg516
I507
sg2355
I2346
sg2454
I2445
sg67
I58
sg84
I75
sg717
I708
sg2274
I2265
sg3134
I3125
sg2502
I2493
sg1088
I1079
sg1961
I1952
sg658
I649
sg1538
I1529
sg295
I286
sg3358
I3349
sg2525
I2516
sg2685
I2676
sg3024
I3015
sg1429
I1420
sg2620
I2611
sg542
I533
sg540
I531
sg2191
I2182
sg1243
I1234
sg986
I977
sg3140
I3131
sg3110
I3101
sg990
I981
sg2949
I2940
sg1160
I1151
sg743
I734
sg469
I460
sg2272
I2263
sg1074
I1065
sg3186
I3177
sg1528
I1519
sg3361
I3352
sg2288
I2279
sg2895
I2886
sg1030
I1021
sg344
I335
sg3012
I3003
sg2263
I2254
sg318
I309
sg2703
I2694
sg1029
I1020
sg1275
I1266
sg1237
I1228
sg519
I510
sg1846
I1837
sg274
I265
sg641
I632
sg1232
I1223
sg39
I30
sg1912
I1903
sg834
I825
sg645
I636
sg1970
I1961
sg2437
I2428
sg2651
I2642
sg250
I241
sg1878
I1869
sg668
I659
sg82
I73
sg148
I139
sg2417
I2408
sg3088
I3079
sg2965
I2956
sg827
I818
sg2061
I2052
sg1866
I1857
sg1468
I1459
sg526
I517
sg2627
I2618
sg1192
I1183
sg1755
I1746
sg2314
I2305
sg252
I243
sg2498
I2489
sg1104
I1095
sg996
I987
sg3029
I3020
sg1509
I1500
sg3000
I2991
sg1181
I1172
sg1803
I1794
sg3074
I3065
sg1694
I1685
sg1204
I1195
sg244
I235
sg2629
I2620
sg69
I60
sg2588
I2579
sg1551
I1542
sg1167
I1158
sg2577
I2568
sg2811
I2802
sg1215
I1206
sg3303
I3294
sg2552
I2543
sg62
I53
sg2150
I2141
sg2363
I2354
sg130
I121
sg2481
I2472
sg2886
I2877
sg2882
I2873
sg2593
I2584
sg362
I353
sg1050
I1041
sg251
I242
sg1293
I1284
sg1288
I1279
sg3351
I3342
sg1108
I1099
sg699
I690
sg260
I251
sg1671
I1662
sg2760
I2751
sg2359
I2350
sg1573
I1564
sg2621
I2612
sg812
I803
sg2393
I2384
sg1590
I1581
sg1448
I1439
sg3359
I3350
sg1707
I1698
sg946
I937
sg1740
I1731
sg590
I581
sg2675
I2666
sg2712
I2703
sg819
I810
sg681
I672
sg298
I289
sg3014
I3005
sg1369
I1360
sg315
I306
sg2743
I2734
sg2265
I2256
sg2054
I2045
sg2486
I2477
sg1461
I1452
sg2769
I2760
sg1246
I1237
sg2514
I2505
sg2297
I2288
sg746
I737
sg2420
I2411
sg1895
I1886
sg2642
I2633
sg3291
I3282
sg3018
I3009
sg1124
I1115
sg2251
I2242
sg2236
I2227
sg2449
I2440
sg1159
I1150
sg878
I869
sg3091
I3082
sg1507
I1498
sg2174
I2165
sg363
I354
sg1454
I1445
sg1343
I1334
sg31
I22
sg3271
I3262
sg529
I520
sg122
I113
sg234
I225
sg2968
I2959
sg3228
I3219
sg1456
I1447
sg2425
I2416
sg2108
I2099
sg518
I509
sg899
I890
sg662
I653
sg1655
I1646
sg630
I621
sg2526
I2517
sg1523
I1514
sg1290
I1281
sg2543
I2534
sg881
I872
sg453
I444
sg718
I709
sg1382
I1373
sg644
I635
sg1709
I1700
sg1924
I1915
sg868
I859
sg2089
I2080
sg1584
I1575
sg752
I743
sg26
I17
sg10
I1
sg57
I48
sg2231
I2222
sg575
I566
sg2120
I2111
sg167
I158
sg3076
I3067
sg2197
I2188
sg532
I523
sg3295
I3286
sg1047
I1038
sg383
I374
sg53
I44
sg734
I725
sg81
I72
sg1974
I1965
sg89
I80
sg2521
I2512
sg2141
I2132
sg2335
I2326
sg2505
I2496
sg2185
I2176
sg2940
I2931
sg3200
I3191
sg2992
I2983
sg1703
I1694
sg791
I782
sg1935
I1926
sg1941
I1932
sg1122
I1113
sg463
I454
sg1423
I1414
sg1940
I1931
sg3274
I3265
sg810
I801
sg1987
I1978
sg3385
I3376
sg2931
I2922
sg2257
I2248
sg637
I628
sg2088
I2079
sg551
I542
sg232
I223
sg283
I274
sg217
I208
sg163
I154
sg3319
I3310
sg1712
I1703
sg1009
I1000
sg474
I465
sg1131
I1122
sg2379
I2370
sg1744
I1735
sg2654
I2645
sg651
I642
sg769
I760
sg2908
I2899
sg2306
I2297
sg3236
I3227
sg2748
I2739
sg574
I565
sg2123
I2114
sg2201
I2192
sg3001
I2992
sg2987
I2978
sg655
I646
sg2813
I2804
sg238
I229
sg545
I536
sg860
I851
sg3297
I3288
sg1013
I1004
sg807
I798
sg2575
I2566
sg3239
I3230
sg352
I343
sg1284
I1275
sg1002
I993
sg1789
I1780
sg745
I736
sg3218
I3209
sg1302
I1293
sg2814
I2805
sg2720
I2711
sg1081
I1072
sg1777
I1768
sg1249
I1240
sg1418
I1409
sg1505
I1496
sg3035
I3026
sg1771
I1762
sg536
I527
sg1403
I1394
sg2539
I2530
sg712
I703
sg1180
I1171
sg2134
I2125
sg391
I382
sg1453
I1444
sg588
I579
sg3107
I3098
sg145
I136
sg1480
I1471
sg1734
I1725
sg185
I176
sg2775
I2766
sg467
I458
sg2204
I2195
sg1949
I1940
sg670
I661
sg1559
I1550
sg2513
I2504
sg2074
I2065
sg661
I652
sg2031
I2022
sg856
I847
sg605
I596
sg3376
I3367
sg1801
I1792
sg256
I247
sg3354
I3345
sg762
I753
sg2293
I2284
sg2684
I2675
sg329
I320
sg1424
I1415
sg2246
I2237
sg1115
I1106
sg2456
I2447
sg2784
I2775
sg2003
I1994
sg3279
I3270
sg1899
I1890
sg1462
I1453
sg2453
I2444
sg1838
I1829
sg613
I604
sg410
I401
sg3163
I3154
sg543
I534
sg2133
I2124
sg2020
I2011
sg3009
I3000
sg14
I5
sg2555
I2546
sg294
I285
sg1412
I1403
sg3135
I3126
sg2410
I2401
sg2370
I2361
sg3211
I3202
sg804
I795
sg396
I387
sg2866
I2857
sg1345
I1336
sg1587
I1578
sg1006
I997
sg2414
I2405
sg3177
I3168
sg1336
I1327
sg3064
I3055
sg319
I310
sg3172
I3163
sg2649
I2640
sg2161
I2152
sg2334
I2325
sg2707
I2698
sg1474
I1465
sg156
I147
sg636
I627
sg271
I262
sg507
I498
sg2105
I2096
sg870
I861
sg556
I547
sg2009
I2000
sg2047
I2038
sg3003
I2994
sg2551
I2542
sg818
I809
sg3323
I3314
sg2428
I2419
sg1577
I1568
sg2974
I2965
sg2976
I2967
sg1132
I1123
sg1572
I1563
sg1311
I1302
sg1876
I1867
sg1095
I1086
sg2129
I2120
sg1398
I1389
sg458
I449
sg71
I62
sg1360
I1351
sg598
I589
sg1794
I1785
sg1164
I1155
sg704
I695
sg134
I125
sg770
I761
sg1760
I1751
sg783
I774
sg546
I537
sg3048
I3039
sg1501
I1492
sg940
I931
sg2239
I2230
sg1497
I1488
sg2295
I2286
sg648
I639
sg587
I578
sg393
I384
sg64
I55
sg268
I259
sg1066
I1057
sg1067
I1058
sg2386
I2377
sg170
I161
sg3301
I3292
sg3171
I3162
sg2690
I2681
sg2402
I2393
sg2349
I2340
sg975
I966
sg423
I414
sg2135
I2126
sg61
I52
sg1349
I1340
sg2220
I2211
sg2536
I2527
sg2193
I2184
sg1260
I1251
sg2071
I2062
sg397
I388
sg278
I269
sg2585
I2576
sg1356
I1347
sg930
I921
sg2023
I2014
sg797
I788
sg2073
I2064
sg709
I700
sg2838
I2829
sg2313
I2304
sg723
I714
sg1203
I1194
sg911
I902
sg2294
I2285
sg2831
I2822
sg1537
I1528
sg2662
I2653
sg3071
I3062
sg872
I863
sg873
I864
sg2788
I2779
sg1697
I1688
sg3263
I3254
sg1848
I1839
sg3058
I3049
sg79
I70
sg359
I350
sg2028
I2019
sg127
I118
sg2691
I2682
sg2591
I2582
sg1896
I1887
sg3042
I3033
sg963
I954
sg907
I898
sg2533
I2524
sg1051
I1042
sg3016
I3007
sg2534
I2525
sg1317
I1308
sg2316
I2307
sg1743
I1734
sg140
I131
sg1562
I1553
sg3341
I3332
sg3078
I3069
sg1897
I1888
sg628
I619
sg1319
I1310
sg2780
I2771
sg2483
I2474
sg2962
I2953
sg891
I882
sg3283
I3274
sg1193
I1184
sg1417
I1408
sg2648
I2639
sg814
I805
sg1242
I1233
sg1492
I1483
sg3378
I3369
sg2036
I2027
sg1494
I1485
sg1826
I1817
sg1498
I1489
sg2232
I2223
sg2701
I2692
sg2854
I2845
sg2993
I2984
sg956
I947
sg433
I424
sg3105
I3096
sg1217
I1208
sg722
I713
sg1443
I1434
sg2898
I2889
sg3063
I3054
sg3343
I3334
sg1716
I1707
sg2727
I2718
sg3082
I3073
sg2737
I2728
sg2229
I2220
sg1467
I1458
sg1089
I1080
sg471
I462
sg2722
I2713
sg174
I165
sg1837
I1828
sg1534
I1525
sg1578
I1569
sg3149
I3140
sg3127
I3118
sg1705
I1696
sg3160
I3151
sg1162
I1153
sg2139
I2130
sg80
I71
sg1886
I1877
sg775
I766
sg1845
I1836
sg88
I79
sg539
I530
sg2952
I2943
sg1916
I1907
sg1791
I1782
sg1014
I1005
sg1544
I1535
sg2336
I2327
sg164
I155
sg277
I268
sg2947
I2938
sg2007
I1998
sg3052
I3043
sg3317
I3308
sg195
I186
sg927
I918
sg1634
I1625
sg1563
I1554
sg3057
I3048
sg1236
I1227
sg2429
I2420
sg3053
I3044
sg2064
I2055
sg1113
I1104
sg11
I2
sg760
I751
sg1510
I1501
sg404
I395
sg659
I650
sg202
I193
sg1990
I1981
sg2439
I2430
sg1715
I1706
sg1257
I1248
sg1374
I1365
sg273
I264
sg1318
I1309
sg2352
I2343
sg1586
I1577
sg1093
I1084
sg33
I24
sg993
I984
sg1352
I1343
sg2086
I2077
sg282
I273
sg2371
I2362
sg3337
I3328
sg1282
I1273
sg3371
I3362
sg1395
I1386
sg1588
I1579
sg3340
I3331
sg2438
I2429
sg569
I560
sg3131
I3122
sg1611
I1602
sg19
I10
sg2925
I2916
sg3345
I3336
sg1812
I1803
sg778
I769
sg2604
I2595
sg640
I631
sg842
I833
sg1643
I1634
sg1806
I1797
sg424
I415
sg1255
I1246
sg1140
I1131
sg289
I280
sg2328
I2319
sg1222
I1213
sg1285
I1276
sg3246
I3237
sg2465
I2456
sg120
I111
sg967
I958
sg1158
I1149
sg3300
I3291
sg610
I601
sg581
I572
sg1993
I1984
sg115
I106
sg240
I231
sg1269
I1260
sg924
I915
sg360
I351
sg2876
I2867
sg776
I767
sg309
I300
sg724
I715
sg1547
I1538
sg2011
I2002
sg829
I820
sg3356
I3347
sg2051
I2042
sg2512
I2503
sg2168
I2159
sg982
I973
sg1901
I1892
sg2305
I2296
sg2112
I2103
sg2877
I2868
sg2261
I2252
sg2392
I2383
sg1750
I1741
sg1718
I1709
sg787
I778
sg1978
I1969
sg1209
I1200
sg555
I546
sg2309
I2300
sg1208
I1199
sg998
I989
sg24
I15
sg701
I692
sg533
I524
sg484
I475
sg1954
I1945
sg1768
I1759
sg107
I98
sg3275
I3266
sg913
I904
sg327
I318
sg2951
I2942
sg1463
I1454
sg880
I871
sg1804
I1795
sg1276
I1267
sg3298
I3289
sg330
I321
sg126
I117
sg2834
I2825
sg879
I870
sg2998
I2989
sg1985
I1976
sg2424
I2415
sg3322
I3313
sg2377
I2368
sg2067
I2058
sg2802
I2793
sg1430
I1421
sg562
I553
sg1571
I1562
sg1439
I1430
sg382
I373
sg664
I655
sg2793
I2784
sg2476
I2467
sg2213
I2204
sg1224
I1215
sg3146
I3137
sg1823
I1814
sg3040
I3031
sg2744
I2735
sg1490
I1481
sg2323
I2314
sg1517
I1508
sg499
I490
sg2580
I2571
sg992
I983
sg3109
I3100
sg2077
I2068
sg2382
I2373
sg2653
I2644
sg2171
I2162
sg510
I501
sg2726
I2717
sg2178
I2169
sg2136
I2127
sg2650
I2641
sg2215
I2206
sg508
I499
sg2128
I2119
sg547
I538
sg1749
I1740
sg2655
I2646
sg1031
I1022
sg1947
I1938
sg977
I968
sg1758
I1749
sg2524
I2515
sg2532
I2523
sg1529
I1520
sg1384
I1375
sg2407
I2398
sg3314
I3305
sg241
I232
sg2422
I2413
sg338
I329
sg2893
I2884
sg608
I599
sg2318
I2309
sg2450
I2441
sg3389
I3380
sg1518
I1509
sg3253
I3244
sg3137
I3128
sg2926
I2917
sg1023
I1014
sg1640
I1631
sg849
I840
sg2451
I2442
sg2255
I2246
sg2985
I2976
sg2082
I2073
sg1565
I1556
sg855
I846
sg1472
I1463
sg173
I164
sg2224
I2215
sg2879
I2870
sg1092
I1083
sg1939
I1930
sg1149
I1140
sg3147
I3138
sg531
I522
sg973
I964
sg792
I783
sg1918
I1909
sg2663
I2654
sg3310
I3301
sg58
I49
sg2206
I2197
sg2894
I2885
sg1798
I1789
sg890
I881
sg2887
I2878
sg2851
I2842
sg1111
I1102
sg639
I630
sg3285
I3276
sg367
I358
sg3352
I3343
sg2104
I2095
sg104
I95
sg883
I874
sg1156
I1147
sg1125
I1116
sg150
I141
sg2218
I2209
sg1099
I1090
sg2397
I2388
sg1341
I1332
sg1576
I1567
sg820
I811
sg3185
I3176
sg2975
I2966
sg1402
I1393
sg2740
I2731
sg2241
I2232
sg983
I974
sg1875
I1866
sg430
I421
sg1956
I1947
sg249
I240
sg365
I356
sg1922
I1913
sg1190
I1181
sg1028
I1019
sg1515
I1506
sg2339
I2330
sg1315
I1306
sg1926
I1917
sg2205
I2196
sg2087
I2078
sg2560
I2551
sg3151
I3142
sg151
I142
sg1622
I1613
sg63
I54
sg1188
I1179
sg2981
I2972
sg943
I934
sg1520
I1511
sg997
I988
sg576
I567
sg554
I545
sg1700
I1691
sg3079
I3070
sg90
I81
sg1936
I1927
sg2098
I2089
sg652
I643
sg1783
I1774
sg1787
I1778
sg3331
I3322
sg1328
I1319
sg813
I804
sg3325
I3316
sg3332
I3323
sg861
I852
sg594
I585
sg1400
I1391
sg909
I900
sg691
I682
sg2636
I2627
sg2260
I2251
sg2870
I2861
sg1998
I1989
sg2093
I2084
sg2479
I2470
sg1008
I999
sg1776
I1767
sg2485
I2476
sg2980
I2971
sg228
I219
sg3119
I3110
sg73
I64
sg1273
I1264
sg401
I392
sg1583
I1574
sg2841
I2832
sg2616
I2607
sg1976
I1967
sg2969
I2960
sg1022
I1013
sg2531
I2522
sg620
I611
sg2665
I2656
sg1361
I1352
sg279
I270
sg144
I135
sg2312
I2303
sg114
I105
sg1945
I1936
sg1338
I1329
sg2674
I2665
sg3170
I3161
sg1775
I1766
sg2018
I2009
sg1859
I1850
sg2192
I2183
sg2667
I2658
sg1589
I1580
sg2782
I2773
sg356
I347
sg2416
I2407
sg2270
I2261
sg312
I303
sg2243
I2234
sg3100
I3091
sg2863
I2854
sg95
I86
sg2842
I2833
sg2269
I2260
sg1212
I1203
sg237
I228
sg2991
I2982
sg2553
I2544
sg1211
I1202
sg1973
I1964
sg2935
I2926
sg1357
I1348
sg1169
I1160
sg2069
I2060
sg504
I495
sg1966
I1957
sg1793
I1784
sg1481
I1472
sg2027
I2018
sg1720
I1711
sg1723
I1714
sg1409
I1400
sg3219
I3210
sg321
I312
sg17
I8
sg867
I858
sg2221
I2212
sg2256
I2247
sg1096
I1087
sg666
I657
sg2222
I2213
sg16
I7
sg2262
I2253
sg2480
I2471
sg2899
I2890
sg1325
I1316
sg2383
I2374
sg2034
I2025
sg979
I970
sg1278
I1269
sg2573
I2564
sg1036
I1027
sg2419
I2410
sg3032
I3023
sg994
I985
sg1796
I1787
sg1737
I1728
sg317
I308
sg257
I248
sg677
I668
sg922
I913
sg920
I911
sg50
I41
sg919
I910
sg535
I526
sg2418
I2409
sg917
I908
sg1143
I1134
sg2594
I2585
sg2544
I2535
sg2672
I2663
sg836
I827
sg1968
I1959
sg1724
I1715
sg2704
I2695
sg1833
I1824
sg850
I841
sg1265
I1256
sg210
I201
sg1225
I1216
sg1706
I1697
sg603
I594
sg3213
I3204
sg2408
I2399
sg3115
I3106
sg1854
I1845
sg748
I739
sg2072
I2063
sg52
I43
sg2117
I2108
sg1235
I1226
sg1802
I1793
sg719
I710
sg1904
I1895
sg2167
I2158
sg1287
I1278
sg2466
I2457
sg800
I791
sg1286
I1277
sg125
I116
sg3309
I3300
sg1460
I1451
sg1911
I1902
sg343
I334
sg1415
I1406
sg255
I246
sg1691
I1682
sg1991
I1982
sg1496
I1487
sg2496
I2487
sg2778
I2769
sg133
I124
sg1482
I1473
sg2247
I2238
sg300
I291
sg2687
I2678
sg2598
I2589
sg147
I138
sg895
I886
sg2777
I2768
sg3262
I3253
sg2325
I2316
sg1542
I1533
sg444
I435
sg713
I704
sg3320
I3311
sg1699
I1690
sg1296
I1287
sg421
I412
sg1466
I1457
sg1488
I1479
sg1971
I1962
sg2578
I2569
sg823
I814
sg480
I471
sg320
I311
sg1253
I1244
sg1264
I1255
sg2538
I2529
sg1223
I1214
sg335
I326
sg2825
I2816
sg3038
I3029
sg537
I528
sg1218
I1209
sg1368
I1359
sg798
I789
sg3287
I3278
sg3049
I3040
sg65
I56
sg28
I19
sg48
I39
sg846
I837
sg2124
I2115
sg1116
I1107
sg1927
I1918
sg222
I213
sg15
I6
sg1191
I1182
sg2884
I2875
sg2634
I2625
sg1506
I1497
sg1414
I1405
sg466
I457
sg361
I352
sg183
I174
ssS'separator'
p3394
S'='
p3395
sS'sparse'
p3396
I01
sS'_sklearn_version'
p3397
S'0.19.1'
p3398
sb.